(dp0
S'METTS MARK'
p1
(dp2
S'to_messages'
p3
I807
sS'deferral_payments'
p4
I0
sS'expenses'
p5
I94299
sS'poi'
p6
I00
sS'deferred_income'
p7
I0
sS'email_address'
p8
S'mark.metts@enron.com'
p9
sS'long_term_incentive'
p10
I0
sS'fraction_from_poi'
p11
F0.04708798017348203
sS'restricted_stock_deferred'
p12
I0
sS'shared_receipt_with_poi'
p13
I702
sS'loan_advances'
p14
I0
sS'from_messages'
p15
I29
sS'other'
p16
I1740
sS'director_fees'
p17
I0
sS'bonus'
p18
cnumpy.core.multiarray
scalar
p19
(cnumpy
dtype
p20
(S'f8'
p21
I0
I1
tp22
Rp23
(I3
S'<'
p24
NNNI-1
I-1
I0
tp25
bS'\xe9\x04\x98\xd9\xc6\x08\xbf\xbf'
p26
tp27
Rp28
sS'total_stock_value'
p29
g19
(g23
S'\x06\xeb\xf3\xe1@\x80\xda\xbf'
p30
tp31
Rp32
sS'from_poi_to_this_person'
p33
I38
sS'from_this_person_to_poi'
p34
I1
sS'restricted_stock'
p35
I585062
sS'salary'
p36
I365788
sS'total_payments'
p37
I1061827
sS'fraction_to_poi'
p38
F0.034482758620689655
sS'exercised_stock_options'
p39
g19
(g23
S'\xdc\xbd\x93\x8b\x0b\xb3\xdd\xbf'
p40
tp41
Rp42
ssS'BAXTER JOHN C'
p43
(dp44
g3
I0
sg4
I1295738
sg5
I11200
sg6
I00
sg7
I-1386055
sg8
I0
sg10
I1586055
sg11
F0.0
sg12
I0
sg13
I0
sg14
I0
sg15
I0
sg16
I2660303
sg17
I0
sg18
g19
(g23
S'akN\x7f\x1bZ\xd6?'
p45
tp46
Rp47
sg29
g19
(g23
S'\x91\xd8\xfa\xb5\x16Y\xf2?'
p48
tp49
Rp50
sg33
I0
sg34
I0
sg35
I3942714
sg36
I267102
sg37
I5634343
sg38
F0.0
sg39
g19
(g23
S'b7\x11%{\xf6\xeb?'
p51
tp52
Rp53
ssS'ELLIOTT STEVEN'
p54
(dp55
g3
I0
sg4
I0
sg5
I78552
sg6
I00
sg7
I-400729
sg8
S'steven.elliott@enron.com'
p56
sg10
I0
sg11
F0.0
sg12
I0
sg13
I0
sg14
I0
sg15
I0
sg16
I12961
sg17
I0
sg18
g19
(g23
S'\xd0\x83\xc6\x8c\xfcM\xd4\xbf'
p57
tp58
Rp59
sg29
g19
(g23
S'\x88\xeaT\x12\xc8\x11\xe1?'
p60
tp61
Rp62
sg33
I0
sg34
I0
sg35
I1788391
sg36
I170941
sg37
I211725
sg38
F0.0
sg39
g19
(g23
S'\x10\xb4\xeb?\x81}\xe0?'
p63
tp64
Rp65
ssS'CORDES WILLIAM R'
p66
(dp67
g3
I764
sg4
I0
sg5
I0
sg6
I00
sg7
I0
sg8
S'bill.cordes@enron.com'
p68
sg10
I0
sg11
F0.013089005235602094
sg12
I0
sg13
I58
sg14
I0
sg15
I12
sg16
I0
sg17
I0
sg18
g19
(g23
S'\xeb6\rv?\xef\xe2\xbf'
p69
tp70
Rp71
sg29
g19
(g23
S'\xa6\xe8\x8d\xac\xe8\xfd\xd5\xbf'
p72
tp73
Rp74
sg33
I10
sg34
I0
sg35
I386335
sg36
I0
sg37
I0
sg38
F0.0
sg39
g19
(g23
S'\xf4\x06\xe0\xba6X\xd5\xbf'
p75
tp76
Rp77
ssS'HANNON KEVIN P'
p78
(dp79
g3
I1045
sg4
I0
sg5
I34039
sg6
I01
sg7
I-3117011
sg8
S'kevin.hannon@enron.com'
p80
sg10
I1617011
sg11
F0.03062200956937799
sg12
I0
sg13
I1035
sg14
I0
sg15
I32
sg16
I11350
sg17
I0
sg18
g19
(g23
S'\xd7P\x14\r!\xb4\xe2?'
p81
tp82
Rp83
sg29
g19
(g23
S"1'\xba\x0b\xb7F\xdf?"
p84
tp85
Rp86
sg33
I32
sg34
I21
sg35
I853064
sg36
I243293
sg37
I288682
sg38
F0.65625
sg39
g19
(g23
S'%x\xc4\xa3\n\xa4\xe4?'
p87
tp88
Rp89
ssS'MORDAUNT KRISTINA M'
p90
(dp91
g3
I0
sg4
I0
sg5
I35018
sg6
I00
sg7
I0
sg8
S'kristina.mordaunt@enron.com'
p92
sg10
I0
sg11
F0.0
sg12
I0
sg13
I0
sg14
I0
sg15
I0
sg16
I1411
sg17
I0
sg18
g19
(g23
S'\xac]\x03o*\x8f\xd5\xbf'
p93
tp94
Rp95
sg29
g19
(g23
S'\xbc:H\xf4\x87?\xde\xbf'
p96
tp97
Rp98
sg33
I0
sg34
I0
sg35
I208510
sg36
I267093
sg37
I628522
sg38
F0.0
sg39
g19
(g23
S'\xdc\xbd\x93\x8b\x0b\xb3\xdd\xbf'
p99
tp100
Rp101
ssS'MEYER ROCKFORD G'
p102
(dp103
g3
I232
sg4
I1848227
sg5
I0
sg6
I00
sg7
I0
sg8
S'rockford.meyer@enron.com'
p104
sg10
I0
sg11
F0.0
sg12
I0
sg13
I22
sg14
I0
sg15
I28
sg16
I0
sg17
I0
sg18
g19
(g23
S'\xeb6\rv?\xef\xe2\xbf'
p105
tp106
Rp107
sg29
g19
(g23
S'\xe0\xfb\xf5\xe7\x99\xcf\xd6\xbf'
p108
tp109
Rp110
sg33
I0
sg34
I0
sg35
I462384
sg36
I0
sg37
I1848227
sg38
F0.0
sg39
g19
(g23
S'\x10;Q\xc4\xd2_\xd7\xbf'
p111
tp112
Rp113
ssS'MCMAHON JEFFREY'
p114
(dp115
g3
I2355
sg4
I0
sg5
I137108
sg6
I00
sg7
I0
sg8
S'jeffrey.mcmahon@enron.com'
p116
sg10
I694862
sg11
F0.024628450106157114
sg12
I0
sg13
I2228
sg14
I0
sg15
I48
sg16
I297353
sg17
I0
sg18
g19
(g23
S"\xdd\x84'?\t'\xf7?"
p117
tp118
Rp119
sg29
g19
(g23
S'\xaa\x80\x85\x16\x16\x8d\xcf\xbf'
p120
tp121
Rp122
sg33
I58
sg34
I26
sg35
I558801
sg36
I370448
sg37
I4099771
sg38
F0.5416666666666666
sg39
g19
(g23
S'\x9e\x13{\x08\xe9\x18\xcf\xbf'
p123
tp124
Rp125
ssS'HORTON STANLEY C'
p126
(dp127
g3
I2350
sg4
I3131860
sg5
I0
sg6
I00
sg7
I0
sg8
S'stanley.horton@enron.com'
p128
sg10
I0
sg11
F0.01872340425531915
sg12
I0
sg13
I1074
sg14
I0
sg15
I1073
sg16
I0
sg17
I0
sg18
g19
(g23
S'\xeb6\rv?\xef\xe2\xbf'
p129
tp130
Rp131
sg29
g19
(g23
S'l\xe5\xcd.\xe8\xf1\xe3?'
p132
tp133
Rp134
sg33
I44
sg34
I15
sg35
I2046079
sg36
I0
sg37
I3131860
sg38
F0.013979496738117428
sg39
g19
(g23
S'\x8f\x85\xda\x82\xdc\x8a\xe2?'
p135
tp136
Rp137
ssS'PIPER GREGORY F'
p138
(dp139
g3
I1238
sg4
I1130036
sg5
I43057
sg6
I00
sg7
I-33333
sg8
S'greg.piper@enron.com'
p140
sg10
I0
sg11
F0.049273021001615507
sg12
I-409554
sg13
I742
sg14
I0
sg15
I222
sg16
I778
sg17
I0
sg18
g19
(g23
S'\x18\xd0L\xc8\xa0\xcb\xd1\xbf'
p141
tp142
Rp143
sg29
g19
(g23
S'\x04o\x8b\xb3&\x90\xd7\xbf'
p144
tp145
Rp146
sg33
I61
sg34
I48
sg35
I409554
sg36
I197091
sg37
I1737629
sg38
F0.21621621621621623
sg39
g19
(g23
S'\x9e\xdb$\xc0\xa9j\xd2\xbf'
p147
tp148
Rp149
ssS'HUMPHREY GENE E'
p150
(dp151
g3
I128
sg4
I2964506
sg5
I4994
sg6
I00
sg7
I0
sg8
S'gene.humphrey@enron.com'
p152
sg10
I0
sg11
F0.078125
sg12
I0
sg13
I119
sg14
I0
sg15
I17
sg16
I0
sg17
I0
sg18
g19
(g23
S'\xeb6\rv?\xef\xe2\xbf'
p153
tp154
Rp155
sg29
g19
(g23
S'#,G\x8d\x976\xc3\xbf'
p156
tp157
Rp158
sg33
I10
sg34
I17
sg35
I0
sg36
I130724
sg37
I3100224
sg38
F1.0
sg39
g19
(g23
S'\xfe\xf3\x18F&9|\xbf'
p159
tp160
Rp161
ssS'UMANOFF ADAM S'
p162
(dp163
g3
I111
sg4
I0
sg5
I53122
sg6
I00
sg7
I0
sg8
S'adam.umanoff@enron.com'
p164
sg10
I0
sg11
F0.10810810810810811
sg12
I0
sg13
I41
sg14
I0
sg15
I18
sg16
I0
sg17
I0
sg18
g19
(g23
S"GS\xf0'Xk\x9b?"
p165
tp166
Rp167
sg29
g19
(g23
S'\xe9\x13\xe6\xb9[)\xe0\xbf'
p168
tp169
Rp170
sg33
I12
sg34
I0
sg35
I0
sg36
I288589
sg37
I1130461
sg38
F0.0
sg39
g19
(g23
S'\xdc\xbd\x93\x8b\x0b\xb3\xdd\xbf'
p171
tp172
Rp173
ssS'BLACHMAN JEREMY M'
p174
(dp175
g3
I2475
sg4
I0
sg5
I84208
sg6
I00
sg7
I0
sg8
S'jeremy.blachman@enron.com'
p176
sg10
I831809
sg11
F0.010101010101010102
sg12
I0
sg13
I2326
sg14
I0
sg15
I14
sg16
I272
sg17
I0
sg18
g19
(g23
S'o\x05\xea\x7fd&\xb3?'
p177
tp178
Rp179
sg29
g19
(g23
S'\x96\x97\x85\x8cx\xd3\xd6\xbf'
p180
tp181
Rp182
sg33
I25
sg34
I2
sg35
I189041
sg36
I248546
sg37
I2014835
sg38
F0.14285714285714285
sg39
g19
(g23
S'x\xa9\xde\x1a\xec\xe3\xd3\xbf'
p183
tp184
Rp185
ssS'SUNDE MARTIN'
p186
(dp187
g3
I2647
sg4
I0
sg5
I0
sg6
I00
sg7
I0
sg8
S'marty.sunde@enron.com'
p188
sg10
I476451
sg11
F0.013978088401964487
sg12
I0
sg13
I2565
sg14
I0
sg15
I38
sg16
I111122
sg17
I0
sg18
g19
(g23
S'X\xce\x94k\xd1\xeb\xa5\xbf'
p189
tp190
Rp191
sg29
g19
(g23
S'\xb9\x82\xdc]2^\xd9\xbf'
p192
tp193
Rp194
sg33
I37
sg34
I13
sg35
I698920
sg36
I257486
sg37
I1545059
sg38
F0.34210526315789475
sg39
g19
(g23
S'\xdc\xbd\x93\x8b\x0b\xb3\xdd\xbf'
p195
tp196
Rp197
ssS'GIBBS DANA R'
p198
(dp199
g3
I169
sg4
I504610
sg5
I0
sg6
I00
sg7
I0
sg8
S'dana.gibbs@enron.com'
p200
sg10
I461912
sg11
F0.0
sg12
I0
sg13
I23
sg14
I0
sg15
I12
sg16
I0
sg17
I0
sg18
g19
(g23
S'\xeb6\rv?\xef\xe2\xbf'
p201
tp202
Rp203
sg29
g19
(g23
S'\xc5\xc7\xc5\x0f0\x7f\xc4\xbf'
p204
tp205
Rp206
sg33
I0
sg34
I0
sg35
I0
sg36
I0
sg37
I966522
sg38
F0.0
sg39
g19
(g23
S'T\x12\xe6\x9d\x16H\x94\xbf'
p207
tp208
Rp209
ssS'LOWRY CHARLES P'
p210
(dp211
g3
I0
sg4
I0
sg5
I0
sg6
I00
sg7
I0
sg8
I0
sg10
I0
sg11
F0.0
sg12
I-153686
sg13
I0
sg14
I0
sg15
I0
sg16
I0
sg17
I0
sg18
g19
(g23
S'\xeb6\rv?\xef\xe2\xbf'
p212
tp213
Rp214
sg29
g19
(g23
S'\xc8\xd7\x9cZ\x83\x9e\xdc\xbf'
p215
tp216
Rp217
sg33
I0
sg34
I0
sg35
I153686
sg36
I0
sg37
I0
sg38
F0.0
sg39
g19
(g23
S'\xa7O\xaa\xdf\xc6\xed\xd8\xbf'
p218
tp219
Rp220
ssS'COLWELL WESLEY'
p221
(dp222
g3
I1758
sg4
I27610
sg5
I16514
sg6
I01
sg7
I-144062
sg8
S'wes.colwell@enron.com'
p223
sg10
I0
sg11
F0.13651877133105803
sg12
I0
sg13
I1132
sg14
I0
sg15
I40
sg16
I101740
sg17
I0
sg18
g19
(g23
S'akN\x7f\x1bZ\xd6?'
p224
tp225
Rp226
sg29
g19
(g23
S'TYP\x89\xec_\xd9\xbf'
p227
tp228
Rp229
sg33
I240
sg34
I11
sg35
I698242
sg36
I288542
sg37
I1490344
sg38
F0.275
sg39
g19
(g23
S'\xdc\xbd\x93\x8b\x0b\xb3\xdd\xbf'
p230
tp231
Rp232
ssS'MULLER MARK S'
p233
(dp234
g3
I136
sg4
I842924
sg5
I0
sg6
I00
sg7
I-719000
sg8
S's..muller@enron.com'
p235
sg10
I1725545
sg11
F0.08823529411764706
sg12
I0
sg13
I114
sg14
I0
sg15
I16
sg16
I947
sg17
I0
sg18
g19
(g23
S'\xf2\x03[\xf6cU\xd1?'
p236
tp237
Rp238
sg29
g19
(g23
S'\x836V\xe0@9\xd2\xbf'
p239
tp240
Rp241
sg33
I12
sg34
I0
sg35
I360528
sg36
I251654
sg37
I3202070
sg38
F0.0
sg39
g19
(g23
S'^\xafn\x1c\x14)\xd0\xbf'
p242
tp243
Rp244
ssS'JACKSON CHARLENE R'
p245
(dp246
g3
I258
sg4
I0
sg5
I10181
sg6
I00
sg7
I0
sg8
S'charlene.jackson@enron.com'
p247
sg10
I0
sg11
F0.09689922480620156
sg12
I0
sg13
I117
sg14
I0
sg15
I56
sg16
I2435
sg17
I0
sg18
g19
(g23
S'?\xeb\xb9\x15\xb4R\xd9\xbf'
p248
tp249
Rp250
sg29
g19
(g23
S'\x15\x0f\x05}\xe2\x19\xd9\xbf'
p251
tp252
Rp253
sg33
I25
sg34
I19
sg35
I540672
sg36
I288558
sg37
I551174
sg38
F0.3392857142857143
sg39
g19
(g23
S'"\x92Q^\xd2S\xdb\xbf'
p254
tp255
Rp256
ssS'WESTFAHL RICHARD K'
p257
(dp258
g3
I0
sg4
I0
sg5
I51870
sg6
I00
sg7
I-10800
sg8
S'dick.westfahl@enron.com'
p259
sg10
I256191
sg11
F0.0
sg12
I0
sg13
I0
sg14
I0
sg15
I0
sg16
I401130
sg17
I0
sg18
g19
(g23
S'\xeb6\rv?\xef\xe2\xbf'
p260
tp261
Rp262
sg29
g19
(g23
S'7\r\xf1\x84\x18~\xdc\xbf'
p263
tp264
Rp265
sg33
I0
sg34
I0
sg35
I384930
sg36
I63744
sg37
I762135
sg38
F0.0
sg39
g19
(g23
S'\xdc\xbd\x93\x8b\x0b\xb3\xdd\xbf'
p266
tp267
Rp268
ssS'WALTERS GARETH W'
p269
(dp270
g3
I0
sg4
I53625
sg5
I33785
sg6
I00
sg7
I0
sg8
I0
sg10
I0
sg11
F0.0
sg12
I0
sg13
I0
sg14
I0
sg15
I0
sg16
I0
sg17
I0
sg18
g19
(g23
S'\xeb6\rv?\xef\xe2\xbf'
p271
tp272
Rp273
sg29
g19
(g23
S'\xa6\x88\x99\x1a\xec\x11\xd6\xbf'
p274
tp275
Rp276
sg33
I0
sg34
I0
sg35
I0
sg36
I0
sg37
I87410
sg38
F0.0
sg39
g19
(g23
S'\x11\x7f}\x06\\~\xd0\xbf'
p277
tp278
Rp279
ssS'WALLS JR ROBERT H'
p280
(dp281
g3
I671
sg4
I0
sg5
I50936
sg6
I00
sg7
I0
sg8
S'rob.walls@enron.com'
p282
sg10
I540751
sg11
F0.02533532041728763
sg12
I0
sg13
I215
sg14
I0
sg15
I146
sg16
I2
sg17
I0
sg18
g19
(g23
S'o\x05\xea\x7fd&\xb3?'
p283
tp284
Rp285
sg29
g19
(g23
S'\x15\x13\x02*(a\xda?'
p286
tp287
Rp288
sg33
I17
sg34
I0
sg35
I1552453
sg36
I357091
sg37
I1798780
sg38
F0.0
sg39
g19
(g23
S'\xdaF\xa7\x7f\xb5\x02\xda?'
p289
tp290
Rp291
ssS'KITCHEN LOUISE'
p292
(dp293
g3
I8305
sg4
I0
sg5
I5774
sg6
I00
sg7
I0
sg8
S'louise.kitchen@enron.com'
p294
sg10
I0
sg11
F0.030222757375075255
sg12
I0
sg13
I3669
sg14
I0
sg15
I1728
sg16
I93925
sg17
I0
sg18
g19
(g23
S"'\xc6W\xaa\xeel\xfd?"
p295
tp296
Rp297
sg29
g19
(g23
S'\x8e\t\x80n\xda\xe0\xda\xbf'
p298
tp299
Rp300
sg33
I251
sg34
I194
sg35
I466101
sg36
I271442
sg37
I3471141
sg38
F0.11226851851851852
sg39
g19
(g23
S'8\xf0\x88\xe7!\xa9\xdc\xbf'
p301
tp302
Rp303
ssS'CHAN RONNIE'
p304
(dp305
g3
I0
sg4
I0
sg5
I0
sg6
I00
sg7
I-98784
sg8
I0
sg10
I0
sg11
F0.0
sg12
I-32460
sg13
I0
sg14
I0
sg15
I0
sg16
I0
sg17
I98784
sg18
I0
sg29
I0
sg33
I0
sg34
I0
sg35
I32460
sg36
I0
sg37
I0
sg38
F0.0
sg39
I0
ssS'BELFER ROBERT'
p306
(dp307
g3
I0
sg4
I-102500
sg5
I0
sg6
I00
sg7
I0
sg8
I0
sg10
I0
sg11
F0.0
sg12
I44093
sg13
I0
sg14
I0
sg15
I0
sg16
I0
sg17
I3285
sg18
g19
(g23
S'\xeb6\rv?\xef\xe2\xbf'
p308
tp309
Rp310
sg29
g19
(g23
S'\x12.\x16\xbe\x85a\xe0\xbf'
p311
tp312
Rp313
sg33
I0
sg34
I0
sg35
I0
sg36
I0
sg37
I102500
sg38
F0.0
sg39
g19
(g23
S'L\xdb/6D\xa8\xdd\xbf'
p314
tp315
Rp316
ssS'SHANKMAN JEFFREY A'
p317
(dp318
g3
I3221
sg4
I0
sg5
I178979
sg6
I00
sg7
I0
sg8
S'jeffrey.shankman@enron.com'
p319
sg10
I554422
sg11
F0.029183483390251473
sg12
I0
sg13
I1730
sg14
I0
sg15
I2681
sg16
I1191
sg17
I0
sg18
g19
(g23
S'm\xd3t\xe3\xeb?\xef?'
p320
tp321
Rp322
sg29
g19
(g23
S'/$\xfe\x15Jh\xc7\xbf'
p323
tp324
Rp325
sg33
I94
sg34
I83
sg35
I630137
sg36
I304110
sg37
I3038702
sg38
F0.030958597538232
sg39
g19
(g23
S'\x9fN\xb1\xc7\xdco\xc6\xbf'
p326
tp327
Rp328
ssS'WODRASKA JOHN'
p329
(dp330
g3
I0
sg4
I0
sg5
I0
sg6
I00
sg7
I0
sg8
S'john.wodraska@enron.com'
p331
sg10
I0
sg11
F0.0
sg12
I0
sg13
I0
sg14
I0
sg15
I0
sg16
I189583
sg17
I0
sg18
I0
sg29
I0
sg33
I0
sg34
I0
sg35
I0
sg36
I0
sg37
I189583
sg38
F0.0
sg39
I0
ssS'BERGSIEKER RICHARD P'
p332
(dp333
g3
I383
sg4
I0
sg5
I59175
sg6
I00
sg7
I-485813
sg8
S'rick.bergsieker@enron.com'
p334
sg10
I180250
sg11
F0.010443864229765013
sg12
I0
sg13
I233
sg14
I0
sg15
I59
sg16
I427316
sg17
I0
sg18
g19
(g23
S'?\xeb\xb9\x15\xb4R\xd9\xbf'
p335
tp336
Rp337
sg29
g19
(g23
S'H\xc7x\x83B\xc3\xd9\xbf'
p338
tp339
Rp340
sg33
I4
sg34
I0
sg35
I659249
sg36
I187922
sg37
I618850
sg38
F0.0
sg39
g19
(g23
S'\xdc\xbd\x93\x8b\x0b\xb3\xdd\xbf'
p341
tp342
Rp343
ssS'URQUHART JOHN A'
p344
(dp345
g3
I0
sg4
I0
sg5
I228656
sg6
I00
sg7
I-36666
sg8
I0
sg10
I0
sg11
F0.0
sg12
I0
sg13
I0
sg14
I0
sg15
I0
sg16
I0
sg17
I36666
sg18
I0
sg29
I0
sg33
I0
sg34
I0
sg35
I0
sg36
I0
sg37
I228656
sg38
F0.0
sg39
I0
ssS'BIBI PHILIPPE A'
p346
(dp347
g3
I1607
sg4
I0
sg5
I38559
sg6
I00
sg7
I0
sg8
S'philippe.bibi@enron.com'
p348
sg10
I369721
sg11
F0.01431238332296204
sg12
I0
sg13
I1336
sg14
I0
sg15
I40
sg16
I425688
sg17
I0
sg18
g19
(g23
S'\x059\xcf\xdaX\xa1\xc8?'
p349
tp350
Rp351
sg29
g19
(g23
S'\x81g\x08;\x14\xf3\xcb\xbf'
p352
tp353
Rp354
sg33
I23
sg34
I8
sg35
I378082
sg36
I213625
sg37
I2047593
sg38
F0.2
sg39
g19
(g23
S'\xd0\xda\xa8Cq\xd3\xc5\xbf'
p355
tp356
Rp357
ssS'RIEKER PAULA H'
p358
(dp359
g3
I1328
sg4
I214678
sg5
I33271
sg6
I01
sg7
I-100000
sg8
S'paula.rieker@enron.com'
p360
sg10
I0
sg11
F0.02635542168674699
sg12
I0
sg13
I1258
sg14
I0
sg15
I82
sg16
I1950
sg17
I0
sg18
g19
(g23
S'X\xce\x94k\xd1\xeb\xa5\xbf'
p361
tp362
Rp363
sg29
g19
(g23
S'\xea\x85\xbau\x96t\xca\xbf'
p364
tp365
Rp366
sg33
I35
sg34
I48
sg35
I283649
sg36
I249201
sg37
I1099100
sg38
F0.5853658536585366
sg39
g19
(g23
S'e\x94\xbbf\x19{\xc1\xbf'
p367
tp368
Rp369
ssS'WHALEY DAVID A'
p370
(dp371
g3
I0
sg4
I0
sg5
I0
sg6
I00
sg7
I0
sg8
I0
sg10
I0
sg11
F0.0
sg12
I0
sg13
I0
sg14
I0
sg15
I0
sg16
I0
sg17
I0
sg18
g19
(g23
S'\xeb6\rv?\xef\xe2\xbf'
p372
tp373
Rp374
sg29
g19
(g23
S'\xe7\x89\x91\xc1:W\xdf\xbf'
p375
tp376
Rp377
sg33
I0
sg34
I0
sg35
I0
sg36
I0
sg37
I0
sg38
F0.0
sg39
g19
(g23
S'm\x91\x05l"o\xdc\xbf'
p378
tp379
Rp380
ssS'BECK SALLY W'
p381
(dp382
g3
I7315
sg4
I0
sg5
I37172
sg6
I00
sg7
I0
sg8
S'sally.beck@enron.com'
p383
sg10
I0
sg11
F0.01968557758031442
sg12
I0
sg13
I2639
sg14
I0
sg15
I4343
sg16
I566
sg17
I0
sg18
g19
(g23
S'X\xce\x94k\xd1\xeb\xa5\xbf'
p384
tp385
Rp386
sg29
g19
(g23
S'\x7f\xf6\xfb\xb4\xa8\x11\xdf\xbf'
p387
tp388
Rp389
sg33
I144
sg34
I386
sg35
I126027
sg36
I231330
sg37
I969068
sg38
F0.08887865530739121
sg39
g19
(g23
S'\xdc\xbd\x93\x8b\x0b\xb3\xdd\xbf'
p390
tp391
Rp392
ssS'HAUG DAVID L'
p393
(dp394
g3
I573
sg4
I0
sg5
I475
sg6
I00
sg7
I0
sg8
S'david.haug@enron.com'
p395
sg10
I0
sg11
F0.006980802792321117
sg12
I0
sg13
I471
sg14
I0
sg15
I19
sg16
I0
sg17
I0
sg18
g19
(g23
S'\xeb6\rv?\xef\xe2\xbf'
p396
tp397
Rp398
sg29
g19
(g23
S'\xb7\x18\xd3\x17)\x84\xc4\xbf'
p399
tp400
Rp401
sg33
I4
sg34
I7
sg35
I2217299
sg36
I0
sg37
I475
sg38
F0.3684210526315789
sg39
g19
(g23
S'\xdc\xbd\x93\x8b\x0b\xb3\xdd\xbf'
p402
tp403
Rp404
ssS'ECHOLS JOHN B'
p405
(dp406
g3
I0
sg4
I0
sg5
I21530
sg6
I00
sg7
I0
sg8
S'john.echols@enron.com'
p407
sg10
I2234774
sg11
F0.0
sg12
I0
sg13
I0
sg14
I0
sg15
I0
sg16
I53775
sg17
I0
sg18
g19
(g23
S'\xf7\x9e3\xda\x0f\xd5\xdb\xbf'
p408
tp409
Rp410
sg29
g19
(g23
S'\xab\xe1\xf4\xaahH\xd6\xbf'
p411
tp412
Rp413
sg33
I0
sg34
I0
sg35
I407503
sg36
I182245
sg37
I2692324
sg38
F0.0
sg39
g19
(g23
S'\xcc\x00R\xca\x9f\xfd\xd5\xbf'
p414
tp415
Rp416
ssS'MENDELSOHN JOHN'
p417
(dp418
g3
I0
sg4
I0
sg5
I148
sg6
I00
sg7
I-103750
sg8
I0
sg10
I0
sg11
F0.0
sg12
I0
sg13
I0
sg14
I0
sg15
I0
sg16
I0
sg17
I103750
sg18
I0
sg29
I0
sg33
I0
sg34
I0
sg35
I0
sg36
I0
sg37
I148
sg38
F0.0
sg39
I0
ssS'HICKERSON GARY J'
p419
(dp420
g3
I1320
sg4
I0
sg5
I98849
sg6
I00
sg7
I0
sg8
S'gary.hickerson@enron.com'
p421
sg10
I69223
sg11
F0.030303030303030304
sg12
I0
sg13
I900
sg14
I0
sg15
I27
sg16
I1936
sg17
I0
sg18
g19
(g23
S'F\xb8\x07\x96\xd8\xb8\xe7?'
p422
tp423
Rp424
sg29
g19
(g23
S'O\xc8\x84\xdd\x02\xef\xdb\xbf'
p425
tp426
Rp427
sg33
I40
sg34
I1
sg35
I441096
sg36
I211788
sg37
I2081796
sg38
F0.037037037037037035
sg39
g19
(g23
S'\xdc\xbd\x93\x8b\x0b\xb3\xdd\xbf'
p428
tp429
Rp430
ssS'CLINE KENNETH W'
p431
(dp432
g3
I0
sg4
I0
sg5
I0
sg6
I00
sg7
I0
sg8
I0
sg10
I0
sg11
F0.0
sg12
I-472568
sg13
I0
sg14
I0
sg15
I0
sg16
I0
sg17
I0
sg18
g19
(g23
S'\xeb6\rv?\xef\xe2\xbf'
p433
tp434
Rp435
sg29
g19
(g23
S'\xc6m\x97\xec\xe9o\xde\xbf'
p436
tp437
Rp438
sg33
I0
sg34
I0
sg35
I662086
sg36
I0
sg37
I0
sg38
F0.0
sg39
g19
(g23
S'\xdc\xbd\x93\x8b\x0b\xb3\xdd\xbf'
p439
tp440
Rp441
ssS'LEWIS RICHARD'
p442
(dp443
g3
I952
sg4
I0
sg5
I0
sg6
I00
sg7
I0
sg8
S'richard.lewis@enron.com'
p444
sg10
I0
sg11
F0.01050420168067227
sg12
I0
sg13
I739
sg14
I0
sg15
I26
sg16
I0
sg17
I0
sg18
g19
(g23
S'\xeb6\rv?\xef\xe2\xbf'
p445
tp446
Rp447
sg29
g19
(g23
S'\xe6wO\xc7\x19\xdc\xd7\xbf'
p448
tp449
Rp450
sg33
I10
sg34
I0
sg35
I0
sg36
I0
sg37
I0
sg38
F0.0
sg39
g19
(g23
S'\xab\x99J\x11|\xcc\xd2\xbf'
p451
tp452
Rp453
ssS'HAYES ROBERT E'
p454
(dp455
g3
I504
sg4
I7961
sg5
I0
sg6
I00
sg7
I0
sg8
S'robert.hayes@enron.com'
p456
sg10
I0
sg11
F0.031746031746031744
sg12
I0
sg13
I50
sg14
I0
sg15
I12
sg16
I0
sg17
I0
sg18
g19
(g23
S'\xeb6\rv?\xef\xe2\xbf'
p457
tp458
Rp459
sg29
g19
(g23
S'b\xdd\xfb\x83\xf9\xd0\xde\xbf'
p460
tp461
Rp462
sg33
I16
sg34
I0
sg35
I151418
sg36
I0
sg37
I7961
sg38
F0.0
sg39
g19
(g23
S'\xdc\xbd\x93\x8b\x0b\xb3\xdd\xbf'
p463
tp464
Rp465
ssS'MCCARTY DANNY J'
p466
(dp467
g3
I1433
sg4
I0
sg5
I0
sg6
I00
sg7
I0
sg8
S'danny.mccarty@enron.com'
p468
sg10
I0
sg11
F0.017445917655268667
sg12
I0
sg13
I508
sg14
I0
sg15
I215
sg16
I0
sg17
I0
sg18
g19
(g23
S'\xeb6\rv?\xef\xe2\xbf'
p469
tp470
Rp471
sg29
g19
(g23
S'\xf2\x17\xad Q\xc5\xd8\xbf'
p472
tp473
Rp474
sg33
I25
sg34
I2
sg35
I94556
sg36
I0
sg37
I0
sg38
F0.009302325581395349
sg39
g19
(g23
S'\xba\xdb\xba\xfb\x1d/\xd5\xbf'
p475
tp476
Rp477
ssS'KOPPER MICHAEL J'
p478
(dp479
g3
I0
sg4
I0
sg5
I118134
sg6
I01
sg7
I0
sg8
S'michael.kopper@enron.com'
p480
sg10
I602671
sg11
F0.0
sg12
I0
sg13
I0
sg14
I0
sg15
I0
sg16
I907502
sg17
I0
sg18
g19
(g23
S'!m\x06\xdc\xea9\xa2?'
p481
tp482
Rp483
sg29
g19
(g23
S'~\x9b\xbaXQ\x85\xd6\xbf'
p484
tp485
Rp486
sg33
I0
sg34
I0
sg35
I985032
sg36
I224305
sg37
I2652612
sg38
F0.0
sg39
g19
(g23
S'\xdc\xbd\x93\x8b\x0b\xb3\xdd\xbf'
p487
tp488
Rp489
ssS'LEFF DANIEL P'
p490
(dp491
g3
I2822
sg4
I0
sg5
I0
sg6
I00
sg7
I0
sg8
S'dan.leff@enron.com'
p492
sg10
I1387399
sg11
F0.02374202693125443
sg12
I0
sg13
I2672
sg14
I0
sg15
I63
sg16
I3083
sg17
I0
sg18
g19
(g23
S'\x059\xcf\xdaX\xa1\xc8?'
p493
tp494
Rp495
sg29
g19
(g23
S'\x8co\x80\xb7B\xbc\xdc\xbf'
p496
tp497
Rp498
sg33
I67
sg34
I14
sg35
I360528
sg36
I273746
sg37
I2664228
sg38
F0.2222222222222222
sg39
g19
(g23
S'\xdc\xbd\x93\x8b\x0b\xb3\xdd\xbf'
p499
tp500
Rp501
ssS'LAVORATO JOHN J'
p502
(dp503
g3
I7259
sg4
I0
sg5
I49537
sg6
I00
sg7
I0
sg8
S'john.lavorato@enron.com'
p504
sg10
I2035380
sg11
F0.07273729163796666
sg12
I0
sg13
I3962
sg14
I0
sg15
I2585
sg16
I1552
sg17
I0
sg18
g19
(g23
S'N^\xff\xbd\xad\xb9\x16@'
p505
tp506
Rp507
sg29
g19
(g23
S'\xcf\xfa\xe0<\xbd\x18\xd3?'
p508
tp509
Rp510
sg33
I528
sg34
I411
sg35
I1008149
sg36
I339288
sg37
I10425757
sg38
F0.15899419729206962
sg39
g19
(g23
S'\xa3\xd8\xd3!T\x9b\xd7?'
p511
tp512
Rp513
ssS'BERBERIAN DAVID'
p514
(dp515
g3
I0
sg4
I0
sg5
I11892
sg6
I00
sg7
I0
sg8
S'david.berberian@enron.com'
p516
sg10
I0
sg11
F0.0
sg12
I0
sg13
I0
sg14
I0
sg15
I0
sg16
I0
sg17
I0
sg18
g19
(g23
S'\xeb6\rv?\xef\xe2\xbf'
p517
tp518
Rp519
sg29
g19
(g23
S'\x12\x1f\xda\t\x9e\x08\xbe\xbf'
p520
tp521
Rp522
sg33
I0
sg34
I0
sg35
I869220
sg36
I216582
sg37
I228474
sg38
F0.0
sg39
g19
(g23
S'\xc8\xf6\xcf\x85?\xc2\xc1\xbf'
p523
tp524
Rp525
ssS'DETMERING TIMOTHY J'
p526
(dp527
g3
I0
sg4
I875307
sg5
I52255
sg6
I00
sg7
I-775241
sg8
S'timothy.detmering@enron.com'
p528
sg10
I415657
sg11
F0.0
sg12
I-315068
sg13
I0
sg14
I0
sg15
I0
sg16
I1105
sg17
I0
sg18
g19
(g23
S'=\xf6\x0f\xe6r\x8a\xd0\xbf'
p529
tp530
Rp531
sg29
g19
(g23
S'\nJ\xce\x95VI\xc8\xbf'
p532
tp533
Rp534
sg33
I0
sg34
I0
sg35
I315068
sg36
I210500
sg37
I1204583
sg38
F0.0
sg39
g19
(g23
S'\xe0\xd4\x8f\xb2/\xaa\xad\xbf'
p535
tp536
Rp537
ssS'WAKEHAM JOHN'
p538
(dp539
g3
I0
sg4
I0
sg5
I103773
sg6
I00
sg7
I0
sg8
I0
sg10
I0
sg11
F0.0
sg12
I0
sg13
I0
sg14
I0
sg15
I0
sg16
I0
sg17
I109298
sg18
I0
sg29
I0
sg33
I0
sg34
I0
sg35
I0
sg36
I0
sg37
I213071
sg38
F0.0
sg39
I0
ssS'POWERS WILLIAM'
p540
(dp541
g3
I653
sg4
I0
sg5
I0
sg6
I00
sg7
I-17500
sg8
S'ken.powers@enron.com'
p542
sg10
I0
sg11
F0.0
sg12
I0
sg13
I12
sg14
I0
sg15
I26
sg16
I0
sg17
I17500
sg18
I0
sg29
I0
sg33
I0
sg34
I0
sg35
I0
sg36
I0
sg37
I0
sg38
F0.0
sg39
I0
ssS'GOLD JOSEPH'
p543
(dp544
g3
I0
sg4
I0
sg5
I0
sg6
I00
sg7
I0
sg8
S'joe.gold@enron.com'
p545
sg10
I304805
sg11
F0.0
sg12
I0
sg13
I0
sg14
I0
sg15
I0
sg16
I819288
sg17
I0
sg18
g19
(g23
S'\xb8\ts|4\x8fm\xbf'
p546
tp547
Rp548
sg29
g19
(g23
S'\x0cj\xd7\xdb\xf9\x96\xd7\xbf'
p549
tp550
Rp551
sg33
I0
sg34
I0
sg35
I441096
sg36
I272880
sg37
I2146973
sg38
F0.0
sg39
g19
(g23
S'I\xa9C\xc6\xc3\x1a\xd8\xbf'
p552
tp553
Rp554
ssS'BANNANTINE JAMES M'
p555
(dp556
g3
I566
sg4
I0
sg5
I56301
sg6
I00
sg7
I-5104
sg8
S'james.bannantine@enron.com'
p557
sg10
I0
sg11
F0.06890459363957598
sg12
I-560222
sg13
I465
sg14
I0
sg15
I29
sg16
I864523
sg17
I0
sg18
g19
(g23
S'\xeb6\rv?\xef\xe2\xbf'
p558
tp559
Rp560
sg29
g19
(g23
S'nw8\xae9\xdb\xd3?'
p561
tp562
Rp563
sg33
I39
sg34
I0
sg35
I1757552
sg36
I477
sg37
I916197
sg38
F0.0
sg39
g19
(g23
S'\x1a\xff\x95~\x16)\xd6?'
p564
tp565
Rp566
ssS'DUNCAN JOHN H'
p567
(dp568
g3
I0
sg4
I0
sg5
I0
sg6
I00
sg7
I-25000
sg8
I0
sg10
I0
sg11
F0.0
sg12
I0
sg13
I0
sg14
I0
sg15
I0
sg16
I0
sg17
I102492
sg18
g19
(g23
S'\xeb6\rv?\xef\xe2\xbf'
p569
tp570
Rp571
sg29
g19
(g23
S'\x9e\xcc\x1c\x17\xac\x9f\xdc\xbf'
p572
tp573
Rp574
sg33
I0
sg34
I0
sg35
I0
sg36
I0
sg37
I77492
sg38
F0.0
sg39
g19
(g23
S'\xd6_\x82\x10E\xef\xd8\xbf'
p575
tp576
Rp577
ssS'SHAPIRO RICHARD S'
p578
(dp579
g3
I15149
sg4
I0
sg5
I137767
sg6
I00
sg7
I0
sg8
S'richard.shapiro@enron.com'
p580
sg10
I0
sg11
F0.0048848108786058485
sg12
I0
sg13
I4527
sg14
I0
sg15
I1215
sg16
I705
sg17
I0
sg18
g19
(g23
S'\n6\xb1\xc7W\xff\xb4\xbf'
p581
tp582
Rp583
sg29
g19
(g23
S'8_q:M\x80\xd6\xbf'
p584
tp585
Rp586
sg33
I74
sg34
I65
sg35
I379164
sg36
I269076
sg37
I1057548
sg38
F0.053497942386831275
sg39
g19
(g23
S'\x87\x99~\xc2\xa0\xe8\xd5\xbf'
p587
tp588
Rp589
ssS'SHERRIFF JOHN R'
p590
(dp591
g3
I3187
sg4
I0
sg5
I0
sg6
I00
sg7
I0
sg8
S'john.sherriff@enron.com'
p592
sg10
I554422
sg11
F0.008785691873235017
sg12
I0
sg13
I2103
sg14
I0
sg15
I92
sg16
I1852186
sg17
I0
sg18
g19
(g23
S'\xd7P\x14\r!\xb4\xe2?'
p593
tp594
Rp595
sg29
g19
(g23
S'\xf1FL\xb1\xa4\xf8\x92\xbf'
p596
tp597
Rp598
sg33
I28
sg34
I23
sg35
I1293424
sg36
I428780
sg37
I4335388
sg38
F0.25
sg39
g19
(g23
S'\xcc\xf7P\xcf\x0f\xb1\xb8\xbf'
p599
tp600
Rp601
ssS'SHELBY REX'
p602
(dp603
g3
I225
sg4
I0
sg5
I22884
sg6
I01
sg7
I-4167
sg8
S'rex.shelby@enron.com'
p604
sg10
I0
sg11
F0.057777777777777775
sg12
I0
sg13
I91
sg14
I0
sg15
I39
sg16
I1573324
sg17
I0
sg18
g19
(g23
S'\xf7\x9e3\xda\x0f\xd5\xdb\xbf'
p605
tp606
Rp607
sg29
g19
(g23
S'\x12\x1f\xda\t\x9e\x08\xbe\xbf'
p608
tp609
Rp610
sg33
I13
sg34
I14
sg35
I869220
sg36
I211844
sg37
I2003885
sg38
F0.358974358974359
sg39
g19
(g23
S'\xc8\xf6\xcf\x85?\xc2\xc1\xbf'
p611
tp612
Rp613
ssS'LEMAISTRE CHARLES'
p614
(dp615
g3
I0
sg4
I0
sg5
I0
sg6
I00
sg7
I-25000
sg8
I0
sg10
I0
sg11
F0.0
sg12
I0
sg13
I0
sg14
I0
sg15
I0
sg16
I0
sg17
I112492
sg18
g19
(g23
S'\xeb6\rv?\xef\xe2\xbf'
p616
tp617
Rp618
sg29
g19
(g23
S'!\xce%\xbc\xe56\xdc\xbf'
p619
tp620
Rp621
sg33
I0
sg34
I0
sg35
I0
sg36
I0
sg37
I87492
sg38
F0.0
sg39
g19
(g23
S'\xbe\xeaY`Rh\xd8\xbf'
p622
tp623
Rp624
ssS'DEFFNER JOSEPH M'
p625
(dp626
g3
I714
sg4
I0
sg5
I41626
sg6
I00
sg7
I0
sg8
S'joseph.deffner@enron.com'
p627
sg10
I335349
sg11
F0.16106442577030813
sg12
I0
sg13
I552
sg14
I0
sg15
I74
sg16
I25553
sg17
I0
sg18
g19
(g23
S'\xe9\x04\x98\xd9\xc6\x08\xbf\xbf'
p628
tp629
Rp630
sg29
g19
(g23
S'k\x96\x19,\x1f\xbd\xde\xbf'
p631
tp632
Rp633
sg33
I115
sg34
I4
sg35
I141833
sg36
I206121
sg37
I1208649
sg38
F0.05405405405405406
sg39
g19
(g23
S'\xb2\xdep`\x06z\xdd\xbf'
p634
tp635
Rp636
ssS'KISHKILL JOSEPH G'
p637
(dp638
g3
I0
sg4
I0
sg5
I116335
sg6
I00
sg7
I-51042
sg8
S'joe.kishkill@enron.com'
p639
sg10
I0
sg11
F0.0
sg12
I0
sg13
I0
sg14
I0
sg15
I0
sg16
I465357
sg17
I0
sg18
g19
(g23
S'\xeb6\rv?\xef\xe2\xbf'
p640
tp641
Rp642
sg29
g19
(g23
S'\xfeB\x96X\xb0\x07\xd6\xbf'
p643
tp644
Rp645
sg33
I0
sg34
I0
sg35
I1034346
sg36
I174246
sg37
I704896
sg38
F0.0
sg39
g19
(g23
S'\xdc\xbd\x93\x8b\x0b\xb3\xdd\xbf'
p646
tp647
Rp648
ssS'WHALLEY LAWRENCE G'
p649
(dp650
g3
I6019
sg4
I0
sg5
I57838
sg6
I00
sg7
I0
sg8
S'greg.whalley@enron.com'
p651
sg10
I808346
sg11
F0.03090214321315833
sg12
I0
sg13
I3920
sg14
I0
sg15
I556
sg16
I301026
sg17
I0
sg18
g19
(g23
S'L\xec\x1a\xc8\xc0+\xfc?'
p652
tp653
Rp654
sg29
g19
(g23
S'\xa7+\xbe\xa9\x11,\xdc?'
p655
tp656
Rp657
sg33
I186
sg34
I24
sg35
I2796177
sg36
I510364
sg37
I4677574
sg38
F0.04316546762589928
sg39
g19
(g23
S'\xc8\xad\x1f\xe7\xd0\xc1\xc8?'
p658
tp659
Rp660
ssS'MCCONNELL MICHAEL S'
p661
(dp662
g3
I3329
sg4
I0
sg5
I81364
sg6
I00
sg7
I0
sg8
S'mike.mcconnell@enron.com'
p663
sg10
I554422
sg11
F0.02763592670471613
sg12
I0
sg13
I2189
sg14
I0
sg15
I2742
sg16
I540
sg17
I0
sg18
g19
(g23
S'\xf2\x03[\xf6cU\xd1?'
p664
tp665
Rp666
sg29
g19
(g23
S'P"\x9e\xbe\xd4a\x97\xbf'
p667
tp668
Rp669
sg33
I92
sg34
I194
sg35
I1478269
sg36
I365038
sg37
I2101364
sg38
F0.07075127644055434
sg39
g19
(g23
S'\xc8\xbfV\xf2W\xcb\xc1\xbf'
p670
tp671
Rp672
ssS'PIRO JIM'
p673
(dp674
g3
I58
sg4
I0
sg5
I0
sg6
I00
sg7
I0
sg8
S'jim.piro@enron.com'
p675
sg10
I0
sg11
F0.0
sg12
I0
sg13
I3
sg14
I0
sg15
I16
sg16
I0
sg17
I0
sg18
g19
(g23
S'\xeb6\rv?\xef\xe2\xbf'
p676
tp677
Rp678
sg29
g19
(g23
S'\x07%\x18O5\xda\xdf\xbf'
p679
tp680
Rp681
sg33
I0
sg34
I1
sg35
I47304
sg36
I0
sg37
I0
sg38
F0.0625
sg39
g19
(g23
S'\xdc\xbd\x93\x8b\x0b\xb3\xdd\xbf'
p682
tp683
Rp684
ssS'DELAINEY DAVID W'
p685
(dp686
g3
I3093
sg4
I0
sg5
I86174
sg6
I01
sg7
I0
sg8
S'david.delainey@enron.com'
p687
sg10
I1294981
sg11
F0.02133850630455868
sg12
I0
sg13
I2097
sg14
I0
sg15
I3069
sg16
I1661
sg17
I0
sg18
g19
(g23
S'L\xec\x1a\xc8\xc0+\xfc?'
p688
tp689
Rp690
sg29
g19
(g23
S'\x80\xe2%,\xc8%\xad?'
p691
tp692
Rp693
sg33
I66
sg34
I609
sg35
I1323148
sg36
I365163
sg37
I4747979
sg38
F0.198435972629521
sg39
g19
(g23
S'\xe3\x07a\xe0\xbd`u\xbf'
p694
tp695
Rp696
ssS'SULLIVAN-SHAKLOVITZ COLLEEN'
p697
(dp698
g3
I0
sg4
I181993
sg5
I0
sg6
I00
sg7
I0
sg8
I0
sg10
I554422
sg11
F0.0
sg12
I0
sg13
I0
sg14
I0
sg15
I0
sg16
I162
sg17
I0
sg18
g19
(g23
S'3\x83\x93\xb1\xe3l\xe0\xbf'
p699
tp700
Rp701
sg29
g19
(g23
S'i\xd1\ti\x06\xc4\xd2\xbf'
p702
tp703
Rp704
sg33
I0
sg34
I0
sg35
I0
sg36
I162779
sg37
I999356
sg38
F0.0
sg39
g19
(g23
S'=\xe4\xfc3\xb8y\xc8\xbf'
p705
tp706
Rp707
ssS'WROBEL BRUCE'
p708
(dp709
g3
I0
sg4
I0
sg5
I0
sg6
I00
sg7
I0
sg8
I0
sg10
I0
sg11
F0.0
sg12
I0
sg13
I0
sg14
I0
sg15
I0
sg16
I0
sg17
I0
sg18
g19
(g23
S'\xeb6\rv?\xef\xe2\xbf'
p710
tp711
Rp712
sg29
g19
(g23
S'\xb2\x15XZG\xf0\xde\xbf'
p713
tp714
Rp715
sg33
I0
sg34
I0
sg35
I0
sg36
I0
sg37
I0
sg38
F0.0
sg39
g19
(g23
S'\xb7\xd6\xcb(\x89\xea\xdb\xbf'
p716
tp717
Rp718
ssS'LINDHOLM TOD A'
p719
(dp720
g3
I0
sg4
I204075
sg5
I57727
sg6
I00
sg7
I0
sg8
S'tod.lindholm@enron.com'
p721
sg10
I175000
sg11
F0.0
sg12
I0
sg13
I0
sg14
I0
sg15
I0
sg16
I2630
sg17
I0
sg18
g19
(g23
S'\xf7\x9e3\xda\x0f\xd5\xdb\xbf'
p722
tp723
Rp724
sg29
g19
(g23
S'\x9c\x8c\xaf\xea\xdcH\x9d\xbf'
p725
tp726
Rp727
sg33
I0
sg34
I0
sg35
I514847
sg36
I236457
sg37
I875889
sg38
F0.0
sg39
g19
(g23
S'c\x96\x96\t\xc1\xce\xa7?'
p728
tp729
Rp730
ssS'MEYER JEROME J'
p731
(dp732
g3
I0
sg4
I0
sg5
I2151
sg6
I00
sg7
I-38346
sg8
I0
sg10
I0
sg11
F0.0
sg12
I0
sg13
I0
sg14
I0
sg15
I0
sg16
I0
sg17
I38346
sg18
I0
sg29
I0
sg33
I0
sg34
I0
sg35
I0
sg36
I0
sg37
I2151
sg38
F0.0
sg39
I0
ssS'LAY KENNETH L'
p733
(dp734
g3
I4273
sg4
I202911
sg5
I99832
sg6
I01
sg7
I-300000
sg8
S'kenneth.lay@enron.com'
p735
sg10
I3600000
sg11
F0.028785396676807865
sg12
I0
sg13
I2411
sg14
I81525000
sg15
I36
sg16
I10359729
sg17
I0
sg18
g19
(g23
S'\xa9=g\x08\xbb\x96\x13@'
p736
tp737
Rp738
sg29
g19
(g23
S'W.\xff\x1b+\x86\x1c@'
p739
tp740
Rp741
sg33
I123
sg34
I16
sg35
I14761694
sg36
I1072321
sg37
I103559793
sg38
F0.4444444444444444
sg39
g19
(g23
S'\xc8\xd9-\x04\xbe\xa8\x19@'
p742
tp743
Rp744
ssS'BUTTS ROBERT H'
p745
(dp746
g3
I0
sg4
I0
sg5
I9410
sg6
I00
sg7
I-75000
sg8
S'bob.butts@enron.com'
p747
sg10
I175000
sg11
F0.0
sg12
I0
sg13
I0
sg14
I0
sg15
I0
sg16
I150656
sg17
I0
sg18
g19
(g23
S'\xb8\ts|4\x8fm\xbf'
p748
tp749
Rp750
sg29
g19
(g23
S"'D\xc1\xce\xd1*\xdc\xbf"
p751
tp752
Rp753
sg33
I0
sg34
I0
sg35
I417619
sg36
I261516
sg37
I1271582
sg38
F0.0
sg39
g19
(g23
S'\xdc\xbd\x93\x8b\x0b\xb3\xdd\xbf'
p754
tp755
Rp756
ssS'OLSON CINDY K'
p757
(dp758
g3
I1184
sg4
I77716
sg5
I63791
sg6
I00
sg7
I0
sg8
S'cindy.olson@enron.com'
p759
sg10
I100000
sg11
F0.016891891891891893
sg12
I0
sg13
I856
sg14
I0
sg15
I52
sg16
I972
sg17
I0
sg18
g19
(g23
S'\xb8\ts|4\x8fm\xbf'
p760
tp761
Rp762
sg29
g19
(g23
S'\xe5UY\xbd\xa2\x87\xb9\xbf'
p763
tp764
Rp765
sg33
I20
sg34
I15
sg35
I969729
sg36
I329078
sg37
I1321557
sg38
F0.28846153846153844
sg39
g19
(g23
S'_\xf7\xa61Po\xc1\xbf'
p766
tp767
Rp768
ssS'MCDONALD REBECCA'
p769
(dp770
g3
I894
sg4
I0
sg5
I0
sg6
I00
sg7
I0
sg8
S'rebecca.mcdonald@enron.com'
p771
sg10
I0
sg11
F0.06040268456375839
sg12
I0
sg13
I720
sg14
I0
sg15
I13
sg16
I0
sg17
I0
sg18
g19
(g23
S'\xeb6\rv?\xef\xe2\xbf'
p772
tp773
Rp774
sg29
g19
(g23
S'\xd6y\xaa-\xd2\xfb\xce\xbf'
p775
tp776
Rp777
sg33
I54
sg34
I1
sg35
I934065
sg36
I0
sg37
I0
sg38
F0.07692307692307693
sg39
g19
(g23
S'I\x08\xdd\x056\xfe\xd3\xbf'
p778
tp779
Rp780
ssS'CUMBERLAND MICHAEL S'
p781
(dp782
g3
I0
sg4
I0
sg5
I22344
sg6
I00
sg7
I0
sg8
I0
sg10
I275000
sg11
F0.0
sg12
I0
sg13
I0
sg14
I0
sg15
I0
sg16
I713
sg17
I0
sg18
g19
(g23
S'\xac]\x03o*\x8f\xd5\xbf'
p783
tp784
Rp785
sg29
g19
(g23
S'\xd9\xc1\x99\xb0\xfb@\xde\xbf'
p786
tp787
Rp788
sg33
I0
sg34
I0
sg35
I207940
sg36
I184899
sg37
I807956
sg38
F0.0
sg39
g19
(g23
S'\xdc\xbd\x93\x8b\x0b\xb3\xdd\xbf'
p789
tp790
Rp791
ssS'GAHN ROBERT S'
p792
(dp793
g3
I0
sg4
I73122
sg5
I50080
sg6
I00
sg7
I-1042
sg8
I0
sg10
I0
sg11
F0.0
sg12
I0
sg13
I0
sg14
I0
sg15
I0
sg16
I76547
sg17
I0
sg18
g19
(g23
S'P\x9ds\x188\x90\xc8\xbf'
p794
tp795
Rp796
sg29
g19
(g23
S"\xeb\xd6\xbc=\x0e'\xdd\xbf"
p797
tp798
Rp799
sg33
I0
sg34
I0
sg35
I235370
sg36
I192008
sg37
I900585
sg38
F0.0
sg39
g19
(g23
S'\xb7\xc6\x19&\xee\xa1\xdc\xbf'
p800
tp801
Rp802
ssS'MCCLELLAN GEORGE'
p803
(dp804
g3
I1744
sg4
I0
sg5
I228763
sg6
I00
sg7
I-125000
sg8
S'george.mcclellan@enron.com'
p805
sg10
I0
sg11
F0.02981651376146789
sg12
I0
sg13
I1469
sg14
I0
sg15
I49
sg16
I51587
sg17
I0
sg18
g19
(g23
S'M\xd4\xd0\x91\xd3/\xbd?'
p806
tp807
Rp808
sg29
g19
(g23
S'\x98G\xfa\x12\x03\xe4\xd6\xbf'
p809
tp810
Rp811
sg33
I52
sg34
I0
sg35
I441096
sg36
I263413
sg37
I1318763
sg38
F0.0
sg39
g19
(g23
S'5T\x052C4\xd7\xbf'
p812
tp813
Rp814
ssS'HERMANN ROBERT J'
p815
(dp816
g3
I0
sg4
I0
sg5
I48357
sg6
I00
sg7
I-280000
sg8
S'robert.hermann@enron.com'
p817
sg10
I150000
sg11
F0.0
sg12
I0
sg13
I0
sg14
I0
sg15
I0
sg16
I416441
sg17
I0
sg18
g19
(g23
S'X\xce\x94k\xd1\xeb\xa5\xbf'
p818
tp819
Rp820
sg29
g19
(g23
S'\xd2\xbc\xb2N\xa1\xac\xd9\xbf'
p821
tp822
Rp823
sg33
I0
sg34
I0
sg35
I480632
sg36
I262663
sg37
I1297461
sg38
F0.0
sg39
g19
(g23
S'1\x1euV\xd3K\xdb\xbf'
p824
tp825
Rp826
ssS'SCRIMSHAW MATTHEW'
p827
(dp828
g3
I0
sg4
I0
sg5
I0
sg6
I00
sg7
I0
sg8
S'matthew.scrimshaw@enron.com'
p829
sg10
I0
sg11
F0.0
sg12
I0
sg13
I0
sg14
I0
sg15
I0
sg16
I0
sg17
I0
sg18
g19
(g23
S'\xeb6\rv?\xef\xe2\xbf'
p830
tp831
Rp832
sg29
g19
(g23
S'\x94z\xe1\xde\xb8\xc3\xd8\xbf'
p833
tp834
Rp835
sg33
I0
sg34
I0
sg35
I0
sg36
I0
sg37
I0
sg38
F0.0
sg39
g19
(g23
S' \x17N\x07\xcf\xf6\xd3\xbf'
p836
tp837
Rp838
ssS'GATHMANN WILLIAM D'
p839
(dp840
g3
I0
sg4
I0
sg5
I0
sg6
I00
sg7
I0
sg8
I0
sg10
I0
sg11
F0.0
sg12
I-72419
sg13
I0
sg14
I0
sg15
I0
sg16
I0
sg17
I0
sg18
g19
(g23
S'\xeb6\rv?\xef\xe2\xbf'
p841
tp842
Rp843
sg29
g19
(g23
S'\xc4@:\xc9\xb4\xed\xc9\xbf'
p844
tp845
Rp846
sg33
I0
sg34
I0
sg35
I264013
sg36
I0
sg37
I0
sg38
F0.0
sg39
g19
(g23
S'~t\xf3O\x8e\xe2\xbc\xbf'
p847
tp848
Rp849
ssS'HAEDICKE MARK E'
p850
(dp851
g3
I4009
sg4
I2157527
sg5
I76169
sg6
I00
sg7
I-934484
sg8
S'mark.haedicke@enron.com'
p852
sg10
I983346
sg11
F0.04489897730107259
sg12
I-329825
sg13
I1847
sg14
I0
sg15
I1941
sg16
I52382
sg17
I0
sg18
g19
(g23
S'\xa9\xb7\xd4\xba\xbf\xd7\xd3?'
p853
tp854
Rp855
sg29
g19
(g23
S'\xcdGtq\xcfT\xd8\xbf'
p856
tp857
Rp858
sg33
I180
sg34
I61
sg35
I524169
sg36
I374125
sg37
I3859065
sg38
F0.03142709943328181
sg39
g19
(g23
S'\xe1\xba\xb3\xdb\xa1\xe5\xd5\xbf'
p859
tp860
Rp861
ssS'BOWEN JR RAYMOND M'
p862
(dp863
g3
I1858
sg4
I0
sg5
I65907
sg6
I01
sg7
I-833
sg8
S'raymond.bowen@enron.com'
p864
sg10
I974293
sg11
F0.07534983853606028
sg12
I0
sg13
I1593
sg14
I0
sg15
I27
sg16
I1621
sg17
I0
sg18
g19
(g23
S'\x87\x86\xbb\xcc.\xe1\xdd?'
p865
tp866
Rp867
sg29
g19
(g23
S'\xecM7O\x99\xd0\xdd\xbf'
p868
tp869
Rp870
sg33
I140
sg34
I15
sg35
I252055
sg36
I278601
sg37
I2669589
sg38
F0.5555555555555556
sg39
g19
(g23
S'\xdc\xbd\x93\x8b\x0b\xb3\xdd\xbf'
p871
tp872
Rp873
ssS'GILLIS JOHN'
p874
(dp875
g3
I0
sg4
I0
sg5
I0
sg6
I00
sg7
I0
sg8
I0
sg10
I0
sg11
F0.0
sg12
I0
sg13
I0
sg14
I0
sg15
I0
sg16
I0
sg17
I0
sg18
g19
(g23
S'\xeb6\rv?\xef\xe2\xbf'
p876
tp877
Rp878
sg29
g19
(g23
S"\x15Na'\x8bx\xdf\xbf"
p879
tp880
Rp881
sg33
I0
sg34
I0
sg35
I75838
sg36
I0
sg37
I0
sg38
F0.0
sg39
g19
(g23
S'\xff\xa279\xe1\x92\xdd\xbf'
p882
tp883
Rp884
ssS'FITZGERALD JAY L'
p885
(dp886
g3
I936
sg4
I0
sg5
I23870
sg6
I00
sg7
I0
sg8
S'jay.fitzgerald@enron.com'
p887
sg10
I556416
sg11
F0.0010683760683760685
sg12
I0
sg13
I723
sg14
I0
sg15
I16
sg16
I285414
sg17
I0
sg18
g19
(g23
S'\xd0\x83\xc6\x8c\xfcM\xd4\xbf'
p888
tp889
Rp890
sg29
g19
(g23
S'\xd2x\x1a\x9d\x910\xd0\xbf'
p891
tp892
Rp893
sg33
I1
sg34
I8
sg35
I956775
sg36
I199157
sg37
I1414857
sg38
F0.5
sg39
g19
(g23
S'\xc07\xbc\xbe\xd5.\xd5\xbf'
p894
tp895
Rp896
ssS'MORAN MICHAEL P'
p897
(dp898
g3
I672
sg4
I0
sg5
I0
sg6
I00
sg7
I0
sg8
S'michael.moran@enron.com'
p899
sg10
I0
sg11
F0.0
sg12
I0
sg13
I127
sg14
I0
sg15
I19
sg16
I0
sg17
I0
sg18
g19
(g23
S'\xeb6\rv?\xef\xe2\xbf'
p900
tp901
Rp902
sg29
g19
(g23
S'\x19:`lZ\x1f\xde\xbf'
p903
tp904
Rp905
sg33
I0
sg34
I0
sg35
I161602
sg36
I0
sg37
I0
sg38
F0.0
sg39
g19
(g23
S'\xd3\xcfO\xfd\xaf\xef\xdc\xbf'
p906
tp907
Rp908
ssS'REDMOND BRIAN L'
p909
(dp910
g3
I1671
sg4
I0
sg5
I14689
sg6
I00
sg7
I0
sg8
S'brian.redmond@enron.com'
p911
sg10
I0
sg11
F0.12208258527827648
sg12
I0
sg13
I1063
sg14
I0
sg15
I221
sg16
I0
sg17
I0
sg18
g19
(g23
S'\xeb6\rv?\xef\xe2\xbf'
p912
tp913
Rp914
sg29
g19
(g23
S'\xf7$\x91\xb5\x0f\x19\xe7?'
p915
tp916
Rp917
sg33
I204
sg34
I49
sg35
I381285
sg36
I96840
sg37
I111529
sg38
F0.22171945701357465
sg39
g19
(g23
S'<\xac=U\xd9\xa2\xf0?'
p918
tp919
Rp920
ssS'BAZELIDES PHILIP J'
p921
(dp922
g3
I0
sg4
I684694
sg5
I0
sg6
I00
sg7
I0
sg8
I0
sg10
I93750
sg11
F0.0
sg12
I0
sg13
I0
sg14
I0
sg15
I0
sg16
I874
sg17
I0
sg18
g19
(g23
S'\xeb6\rv?\xef\xe2\xbf'
p923
tp924
Rp925
sg29
g19
(g23
S'\x89?"-\x95g\xd0\xbf'
p926
tp927
Rp928
sg33
I0
sg34
I0
sg35
I0
sg36
I80818
sg37
I860136
sg38
F0.0
sg39
g19
(g23
S'\x00!\xd9\xeb\xb2d\xc2\xbf'
p929
tp930
Rp931
ssS'BELDEN TIMOTHY N'
p932
(dp933
g3
I7991
sg4
I2144013
sg5
I17355
sg6
I01
sg7
I-2334434
sg8
S'tim.belden@enron.com'
p934
sg10
I0
sg11
F0.028532098610937303
sg12
I0
sg13
I5521
sg14
I0
sg15
I484
sg16
I210698
sg17
I0
sg18
g19
(g23
S'\x8a\x91\xfb+$3\x0c@'
p935
tp936
Rp937
sg29
g19
(g23
S'KR\xf7w)E\xd5\xbf'
p938
tp939
Rp940
sg33
I228
sg34
I108
sg35
I157569
sg36
I213999
sg37
I5501630
sg38
F0.2231404958677686
sg39
g19
(g23
S'\xdb\xad\x80\x95\xa4{\xd1\xbf'
p941
tp942
Rp943
ssS'DURAN WILLIAM D'
p944
(dp945
g3
I904
sg4
I0
sg5
I25785
sg6
I00
sg7
I0
sg8
S'w.duran@enron.com'
p946
sg10
I1105218
sg11
F0.1172566371681416
sg12
I0
sg13
I599
sg14
I0
sg15
I12
sg16
I1568
sg17
I0
sg18
g19
(g23
S'\xb8\ts|4\x8fm\xbf'
p947
tp948
Rp949
sg29
g19
(g23
S'O$\x0b\xbb\xe5\xfc\xcf\xbf'
p950
tp951
Rp952
sg33
I106
sg34
I3
sg35
I189041
sg36
I210692
sg37
I2093263
sg38
F0.25
sg39
g19
(g23
S'\xbe\xd9E\xe7m.\xc6\xbf'
p953
tp954
Rp955
ssS'THORN TERENCE H'
p956
(dp957
g3
I266
sg4
I16586
sg5
I46145
sg6
I00
sg7
I0
sg8
S'terence.thorn@enron.com'
p958
sg10
I200000
sg11
F0.0
sg12
I0
sg13
I73
sg14
I0
sg15
I41
sg16
I426629
sg17
I0
sg18
g19
(g23
S'\xeb6\rv?\xef\xe2\xbf'
p959
tp960
Rp961
sg29
g19
(g23
S'\x8b\xa9\xbay\x87=\xcf?'
p962
tp963
Rp964
sg33
I0
sg34
I0
sg35
I365320
sg36
I222093
sg37
I911453
sg38
F0.0
sg39
g19
(g23
S'\x1d\x1cj<J^\xdb?'
p965
tp966
Rp967
ssS'FASTOW ANDREW S'
p968
(dp969
g3
I0
sg4
I0
sg5
I55921
sg6
I01
sg7
I-1386055
sg8
S'andrew.fastow@enron.com'
p970
sg10
I1736055
sg11
F0.0
sg12
I0
sg13
I0
sg14
I0
sg15
I0
sg16
I277464
sg17
I0
sg18
g19
(g23
S'\xd0\xd2A\x08\xd3^\xdb?'
p971
tp972
Rp973
sg29
g19
(g23
S'U\xf24\x9f\xcb\xee\xcc\xbf'
p974
tp975
Rp976
sg33
I0
sg34
I0
sg35
I1794412
sg36
I440698
sg37
I2424083
sg38
F0.0
sg39
g19
(g23
S'\xdc\xbd\x93\x8b\x0b\xb3\xdd\xbf'
p977
tp978
Rp979
ssS'FOY JOE'
p980
(dp981
g3
I57
sg4
I181755
sg5
I0
sg6
I00
sg7
I0
sg8
S'tracy.foy@enron.com'
p982
sg10
I0
sg11
F0.0
sg12
I0
sg13
I2
sg14
I0
sg15
I13
sg16
I0
sg17
I0
sg18
g19
(g23
S'\xeb6\rv?\xef\xe2\xbf'
p983
tp984
Rp985
sg29
g19
(g23
S'cyS\xdf\xce\xe7\xdc\xbf'
p986
tp987
Rp988
sg33
I0
sg34
I0
sg35
I0
sg36
I0
sg37
I181755
sg38
F0.0
sg39
g19
(g23
S'\x199\x87\xee-L\xd9\xbf'
p989
tp990
Rp991
ssS'CALGER CHRISTOPHER F'
p992
(dp993
g3
I2598
sg4
I0
sg5
I35818
sg6
I01
sg7
I-262500
sg8
S'christopher.calger@enron.com'
p994
sg10
I375304
sg11
F0.07659738260200154
sg12
I0
sg13
I2188
sg14
I0
sg15
I144
sg16
I486
sg17
I0
sg18
g19
(g23
S'\x18\x1f\xc8Cw\xdc\xd8?'
p995
tp996
Rp997
sg29
g19
(g23
S'\x7f\xf6\xfb\xb4\xa8\x11\xdf\xbf'
p998
tp999
Rp1000
sg33
I199
sg34
I25
sg35
I126027
sg36
I240189
sg37
I1639297
sg38
F0.1736111111111111
sg39
g19
(g23
S'\xdc\xbd\x93\x8b\x0b\xb3\xdd\xbf'
p1001
tp1002
Rp1003
ssS'RICE KENNETH D'
p1004
(dp1005
g3
I905
sg4
I0
sg5
I46950
sg6
I01
sg7
I-3504386
sg8
S'ken.rice@enron.com'
p1006
sg10
I1617011
sg11
F0.04640883977900553
sg12
I0
sg13
I864
sg14
I0
sg15
I18
sg16
I174839
sg17
I0
sg18
g19
(g23
S'"\x92Dx\x06\xfa\xe8?'
p1007
tp1008
Rp1009
sg29
g19
(g23
S'\xd5\xfe|\xb1"\x00\x08@'
p1010
tp1011
Rp1012
sg33
I42
sg34
I4
sg35
I2748364
sg36
I420636
sg37
I505050
sg38
F0.2222222222222222
sg39
g19
(g23
S'\xf2\xbf\xb3\xe2 \x00\x0c@'
p1013
tp1014
Rp1015
ssS'KAMINSKI WINCENTY J'
p1016
(dp1017
g3
I4607
sg4
I0
sg5
I83585
sg6
I00
sg7
I0
sg8
S'vince.kaminski@enron.com'
p1018
sg10
I323466
sg11
F0.008899500759713479
sg12
I0
sg13
I583
sg14
I0
sg15
I14368
sg16
I4669
sg17
I0
sg18
g19
(g23
S'\x18\xd0L\xc8\xa0\xcb\xd1\xbf'
p1019
tp1020
Rp1021
sg29
g19
(g23
S'w\xd2t\x98;\x9c\xd6\xbf'
p1022
tp1023
Rp1024
sg33
I41
sg34
I171
sg35
I126027
sg36
I275101
sg37
I1086821
sg38
F0.011901447661469933
sg39
g19
(g23
S'\xf7\xa2\x8dV\x04\xce\xd2\xbf'
p1025
tp1026
Rp1027
ssS'LOCKHART EUGENE E'
p1028
(dp1029
g3
I0
sg4
I0
sg5
I0
sg6
I00
sg7
I0
sg8
I0
sg10
I0
sg11
F0.0
sg12
I0
sg13
I0
sg14
I0
sg15
I0
sg16
I0
sg17
I0
sg18
I0
sg29
I0
sg33
I0
sg34
I0
sg35
I0
sg36
I0
sg37
I0
sg38
F0.0
sg39
I0
ssS'COX DAVID'
p1030
(dp1031
g3
I102
sg4
I0
sg5
I27861
sg6
I00
sg7
I-41250
sg8
S'chip.cox@enron.com'
p1032
sg10
I0
sg11
F0.0
sg12
I0
sg13
I71
sg14
I0
sg15
I33
sg16
I494
sg17
I0
sg18
g19
(g23
S'!m\x06\xdc\xea9\xa2?'
p1033
tp1034
Rp1035
sg29
g19
(g23
S'\x1f]\xb3\x97\x13d\xdb\xbf'
p1036
tp1037
Rp1038
sg33
I0
sg34
I4
sg35
I378082
sg36
I314288
sg37
I1101393
sg38
F0.12121212121212122
sg39
g19
(g23
S']58\x15W1\xdc\xbf'
p1039
tp1040
Rp1041
ssS'OVERDYKE JR JERE C'
p1042
(dp1043
g3
I0
sg4
I0
sg5
I18834
sg6
I00
sg7
I0
sg8
S'jere.overdyke@enron.com'
p1044
sg10
I135836
sg11
F0.0
sg12
I0
sg13
I0
sg14
I0
sg15
I0
sg16
I176
sg17
I0
sg18
g19
(g23
S'\xeb6\rv?\xef\xe2\xbf'
p1045
tp1046
Rp1047
sg29
g19
(g23
S'j1\x1c\xda\xcc2\xe4?'
p1048
tp1049
Rp1050
sg33
I0
sg34
I0
sg35
I2041016
sg36
I94941
sg37
I249787
sg38
F0.0
sg39
g19
(g23
S'\xf0\x86\x86\xb9\xbf\xe6\xe2?'
p1051
tp1052
Rp1053
ssS'PEREIRA PAULO V. FERRAZ'
p1054
(dp1055
g3
I0
sg4
I0
sg5
I27942
sg6
I00
sg7
I-101250
sg8
I0
sg10
I0
sg11
F0.0
sg12
I0
sg13
I0
sg14
I0
sg15
I0
sg16
I0
sg17
I101250
sg18
I0
sg29
I0
sg33
I0
sg34
I0
sg35
I0
sg36
I0
sg37
I27942
sg38
F0.0
sg39
I0
ssS'STABLER FRANK'
p1056
(dp1057
g3
I0
sg4
I0
sg5
I16514
sg6
I00
sg7
I0
sg8
S'frank.stabler@enron.com'
p1058
sg10
I0
sg11
F0.0
sg12
I0
sg13
I0
sg14
I0
sg15
I0
sg16
I356071
sg17
I0
sg18
g19
(g23
S'S\xd1\xb2~\xd2\x8d\xc9\xbf'
p1059
tp1060
Rp1061
sg29
g19
(g23
S'\x15\xe7"\n\x0f;\xdb\xbf'
p1062
tp1063
Rp1064
sg33
I0
sg34
I0
sg35
I511734
sg36
I239502
sg37
I1112087
sg38
F0.0
sg39
g19
(g23
S'\xdc\xbd\x93\x8b\x0b\xb3\xdd\xbf'
p1065
tp1066
Rp1067
ssS'SKILLING JEFFREY K'
p1068
(dp1069
g3
I3627
sg4
I0
sg5
I29336
sg6
I01
sg7
I0
sg8
S'jeff.skilling@enron.com'
p1070
sg10
I1920000
sg11
F0.0242624758753791
sg12
I0
sg13
I2042
sg14
I0
sg15
I108
sg16
I22122
sg17
I0
sg18
g19
(g23
S'O\x86$\xe14e\x0e@'
p1071
tp1072
Rp1073
sg29
g19
(g23
S'o-/\x7f\xf6j\x0c@'
p1074
tp1075
Rp1076
sg33
I88
sg34
I30
sg35
I6843672
sg36
I1111258
sg37
I8682716
sg38
F0.2777777777777778
sg39
g19
(g23
S'\xb1\xde\xeb\xe2\xef \x0b@'
p1077
tp1078
Rp1079
ssS'BLAKE JR. NORMAN P'
p1080
(dp1081
g3
I0
sg4
I0
sg5
I1279
sg6
I00
sg7
I-113784
sg8
I0
sg10
I0
sg11
F0.0
sg12
I0
sg13
I0
sg14
I0
sg15
I0
sg16
I0
sg17
I113784
sg18
I0
sg29
I0
sg33
I0
sg34
I0
sg35
I0
sg36
I0
sg37
I1279
sg38
F0.0
sg39
I0
ssS'SHERRICK JEFFREY B'
p1082
(dp1083
g3
I613
sg4
I0
sg5
I0
sg6
I00
sg7
I0
sg8
S'jeffrey.sherrick@enron.com'
p1084
sg10
I0
sg11
F0.0636215334420881
sg12
I0
sg13
I583
sg14
I0
sg15
I25
sg16
I0
sg17
I0
sg18
g19
(g23
S'\xeb6\rv?\xef\xe2\xbf'
p1085
tp1086
Rp1087
sg29
g19
(g23
S'\x84\x11u\xd4\xe5,\xcc\xbf'
p1088
tp1089
Rp1090
sg33
I39
sg34
I18
sg35
I405999
sg36
I0
sg37
I0
sg38
F0.72
sg39
g19
(g23
S'\x8e\x9f:\xe0\x1c\xd5\xc6\xbf'
p1091
tp1092
Rp1093
ssS'PRENTICE JAMES'
p1094
(dp1095
g3
I0
sg4
I564348
sg5
I0
sg6
I00
sg7
I0
sg8
S'james.prentice@enron.com'
p1096
sg10
I0
sg11
F0.0
sg12
I0
sg13
I0
sg14
I0
sg15
I0
sg16
I0
sg17
I0
sg18
g19
(g23
S'\xeb6\rv?\xef\xe2\xbf'
p1097
tp1098
Rp1099
sg29
g19
(g23
S'V\xad,\xad\x11m\xd5\xbf'
p1100
tp1101
Rp1102
sg33
I0
sg34
I0
sg35
I208809
sg36
I0
sg37
I564348
sg38
F0.0
sg39
g19
(g23
S'\xd0BDn+W\xd2\xbf'
p1103
tp1104
Rp1105
ssS'GRAY RODNEY'
p1106
(dp1107
g3
I0
sg4
I93585
sg5
I0
sg6
I00
sg7
I0
sg8
I0
sg10
I365625
sg11
F0.0
sg12
I0
sg13
I0
sg14
I0
sg15
I0
sg16
I680833
sg17
I0
sg18
I0
sg29
I0
sg33
I0
sg34
I0
sg35
I0
sg36
I6615
sg37
I1146658
sg38
F0.0
sg39
I0
ssS'PICKERING MARK R'
p1108
(dp1109
g3
I898
sg4
I0
sg5
I31653
sg6
I00
sg7
I0
sg8
S'mark.pickering@enron.com'
p1110
sg10
I0
sg11
F0.0077951002227171495
sg12
I0
sg13
I728
sg14
I400000
sg15
I67
sg16
I0
sg17
I0
sg18
g19
(g23
S'\x887@QX\xd0\xd6\xbf'
p1111
tp1112
Rp1113
sg29
g19
(g23
S',y\xa6)\xad\x04\xe0\xbf'
p1114
tp1115
Rp1116
sg33
I7
sg34
I0
sg35
I0
sg36
I655037
sg37
I1386690
sg38
F0.0
sg39
g19
(g23
S'\xea#\xc6\xce\x8dT\xdd\xbf'
p1117
tp1118
Rp1119
ssS'THE TRAVEL AGENCY IN THE PARK'
p1120
(dp1121
g3
I0
sg4
I0
sg5
I0
sg6
I00
sg7
I0
sg8
I0
sg10
I0
sg11
F0.0
sg12
I0
sg13
I0
sg14
I0
sg15
I0
sg16
I362096
sg17
I0
sg18
I0
sg29
I0
sg33
I0
sg34
I0
sg35
I0
sg36
I0
sg37
I362096
sg38
F0.0
sg39
I0
ssS'NOLES JAMES L'
p1122
(dp1123
g3
I0
sg4
I774401
sg5
I0
sg6
I00
sg7
I0
sg8
I0
sg10
I0
sg11
F0.0
sg12
I-94556
sg13
I0
sg14
I0
sg15
I0
sg16
I0
sg17
I0
sg18
g19
(g23
S'\xeb6\rv?\xef\xe2\xbf'
p1124
tp1125
Rp1126
sg29
g19
(g23
S'\xd2F\xeb\xf0m\xa7\xdc\xbf'
p1127
tp1128
Rp1129
sg33
I0
sg34
I0
sg35
I463261
sg36
I0
sg37
I774401
sg38
F0.0
sg39
g19
(g23
S'\xdc\xbd\x93\x8b\x0b\xb3\xdd\xbf'
p1130
tp1131
Rp1132
ssS'KEAN STEVEN J'
p1133
(dp1134
g3
I12754
sg4
I0
sg5
I41953
sg6
I00
sg7
I0
sg8
S'steven.kean@enron.com'
p1135
sg10
I300000
sg11
F0.010976948408342482
sg12
I0
sg13
I3639
sg14
I0
sg15
I6759
sg16
I1231
sg17
I0
sg18
g19
(g23
S'\x059\xcf\xdaX\xa1\xc8?'
p1136
tp1137
Rp1138
sg29
g19
(g23
S'Zr\xe5k\xdf\xe9\xdc?'
p1139
tp1140
Rp1141
sg33
I140
sg34
I387
sg35
I4131594
sg36
I404338
sg37
I1747522
sg38
F0.05725699067909454
sg39
g19
(g23
S']\x7f\t\xff\xe0B\xae\xbf'
p1142
tp1143
Rp1144
ssS'FOWLER PEGGY'
p1145
(dp1146
g3
I517
sg4
I0
sg5
I0
sg6
I00
sg7
I0
sg8
S'kulvinder.fowler@enron.com'
p1147
sg10
I0
sg11
F0.0
sg12
I0
sg13
I10
sg14
I0
sg15
I36
sg16
I0
sg17
I0
sg18
g19
(g23
S'\xeb6\rv?\xef\xe2\xbf'
p1148
tp1149
Rp1150
sg29
g19
(g23
S'T\x06q+\x87"\xcb\xbf'
p1151
tp1152
Rp1153
sg33
I0
sg34
I0
sg35
I560170
sg36
I0
sg37
I0
sg38
F0.0
sg39
g19
(g23
S'\xc7\xe8Q\xa2\xc1q\xc9\xbf'
p1154
tp1155
Rp1156
ssS'WASAFF GEORGE'
p1157
(dp1158
g3
I400
sg4
I831299
sg5
I0
sg6
I00
sg7
I-583325
sg8
S'george.wasaff@enron.com'
p1159
sg10
I200000
sg11
F0.055
sg12
I0
sg13
I337
sg14
I0
sg15
I30
sg16
I1425
sg17
I0
sg18
g19
(g23
S'\xac]\x03o*\x8f\xd5\xbf'
p1160
tp1161
Rp1162
sg29
g19
(g23
S">\xbf\x8b'\xd0\xb7\xc7\xbf"
p1163
tp1164
Rp1165
sg33
I22
sg34
I7
sg35
I388167
sg36
I259996
sg37
I1034395
sg38
F0.23333333333333334
sg39
g19
(g23
S'DQ\xf3\xc6e\xa2\xc0\xbf'
p1166
tp1167
Rp1168
ssS'WHITE JR THOMAS E'
p1169
(dp1170
g3
I0
sg4
I0
sg5
I81353
sg6
I00
sg7
I0
sg8
S'thomas.white@enron.com'
p1171
sg10
I0
sg11
F0.0
sg12
I0
sg13
I0
sg14
I0
sg15
I0
sg16
I1085463
sg17
I0
sg18
g19
(g23
S'\xc28\xa6\x07\x8a\x92\xce\xbf'
p1172
tp1173
Rp1174
sg29
g19
(g23
S'\x12\xc4yMY\x98\xfd?'
p1175
tp1176
Rp1177
sg33
I0
sg34
I0
sg35
I13847074
sg36
I317543
sg37
I1934359
sg38
F0.0
sg39
g19
(g23
S']M\x8c=i&\xca\xbf'
p1178
tp1179
Rp1180
ssS'CHRISTODOULOU DIOMEDES'
p1181
(dp1182
g3
I0
sg4
I0
sg5
I0
sg6
I00
sg7
I0
sg8
S'diomedes.christodoulou@enron.com'
p1183
sg10
I0
sg11
F0.0
sg12
I0
sg13
I0
sg14
I0
sg15
I0
sg16
I0
sg17
I0
sg18
g19
(g23
S'\xeb6\rv?\xef\xe2\xbf'
p1184
tp1185
Rp1186
sg29
g19
(g23
S'\xea\xf0&&\xe1(\xdc?'
p1187
tp1188
Rp1189
sg33
I0
sg34
I0
sg35
I950730
sg36
I0
sg37
I0
sg38
F0.0
sg39
g19
(g23
S'\xc8\x9c\x88y\x03\x02\xe2?'
p1190
tp1191
Rp1192
ssS'ALLEN PHILLIP K'
p1193
(dp1194
g3
I2902
sg4
I2869717
sg5
I13868
sg6
I00
sg7
I-3081055
sg8
S'phillip.allen@enron.com'
p1195
sg10
I304805
sg11
F0.016195727084769126
sg12
I-126027
sg13
I1407
sg14
I0
sg15
I2195
sg16
I152
sg17
I0
sg18
g19
(g23
S'\x11\xf62\xf5\xcdt\x05@'
p1196
tp1197
Rp1198
sg29
g19
(g23
S'n\xba\xa3+Q9\xce\xbf'
p1199
tp1200
Rp1201
sg33
I47
sg34
I65
sg35
I126027
sg36
I201955
sg37
I4484442
sg38
F0.029612756264236904
sg39
g19
(g23
S'`43Z\x80 \xbe\xbf'
p1202
tp1203
Rp1204
ssS'SHARP VICTORIA T'
p1205
(dp1206
g3
I3136
sg4
I187469
sg5
I116337
sg6
I00
sg7
I0
sg8
S'vicki.sharp@enron.com'
p1207
sg10
I422158
sg11
F0.007653061224489796
sg12
I0
sg13
I2477
sg14
I0
sg15
I136
sg16
I2401
sg17
I0
sg18
g19
(g23
S'\xe9\x04\x98\xd9\xc6\x08\xbf\xbf'
p1208
tp1209
Rp1210
sg29
g19
(g23
S';\xb9@\xe3\xe3g\xdb\xbf'
p1211
tp1212
Rp1213
sg33
I24
sg34
I6
sg35
I213063
sg36
I248146
sg37
I1576511
sg38
F0.04411764705882353
sg39
g19
(g23
S'\xc4\xa8\x0f\xe9\xcb\x18\xda\xbf'
p1214
tp1215
Rp1216
ssS'JAEDICKE ROBERT'
p1217
(dp1218
g3
I0
sg4
I0
sg5
I0
sg6
I00
sg7
I-25000
sg8
I0
sg10
I0
sg11
F0.0
sg12
I-44093
sg13
I0
sg14
I0
sg15
I0
sg16
I0
sg17
I108750
sg18
g19
(g23
S'\xeb6\rv?\xef\xe2\xbf'
p1219
tp1220
Rp1221
sg29
g19
(g23
S'\xa4\x81n\x06\xd2\x06\xdc\xbf'
p1222
tp1223
Rp1224
sg33
I0
sg34
I0
sg35
I44093
sg36
I0
sg37
I83750
sg38
F0.0
sg39
g19
(g23
S'\x10\xe50Gf*\xd8\xbf'
p1225
tp1226
Rp1227
ssS'WINOKUR JR. HERBERT S'
p1228
(dp1229
g3
I0
sg4
I0
sg5
I1413
sg6
I00
sg7
I-25000
sg8
I0
sg10
I0
sg11
F0.0
sg12
I0
sg13
I0
sg14
I0
sg15
I0
sg16
I0
sg17
I108579
sg18
I0
sg29
I0
sg33
I0
sg34
I0
sg35
I0
sg36
I0
sg37
I84992
sg38
F0.0
sg39
I0
ssS'BROWN MICHAEL'
p1230
(dp1231
g3
I1486
sg4
I0
sg5
I49288
sg6
I00
sg7
I0
sg8
S'michael.brown@enron.com'
p1232
sg10
I0
sg11
F0.008748317631224764
sg12
I0
sg13
I761
sg14
I0
sg15
I41
sg16
I0
sg17
I0
sg18
I0
sg29
I0
sg33
I13
sg34
I1
sg35
I0
sg36
I0
sg37
I49288
sg38
F0.024390243902439025
sg39
I0
ssS'BADUM JAMES P'
p1233
(dp1234
g3
I0
sg4
I178980
sg5
I3486
sg6
I00
sg7
I0
sg8
I0
sg10
I0
sg11
F0.0
sg12
I0
sg13
I0
sg14
I0
sg15
I0
sg16
I0
sg17
I0
sg18
g19
(g23
S'\xeb6\rv?\xef\xe2\xbf'
p1235
tp1236
Rp1237
sg29
g19
(g23
S'\x03%\xd3\x84\xeb\xc1\xdd\xbf'
p1238
tp1239
Rp1240
sg33
I0
sg34
I0
sg35
I0
sg36
I0
sg37
I182466
sg38
F0.0
sg39
g19
(g23
S'\xe6\x84\xe1z\x1ae\xda\xbf'
p1241
tp1242
Rp1243
ssS'HUGHES JAMES A'
p1244
(dp1245
g3
I719
sg4
I0
sg5
I0
sg6
I00
sg7
I0
sg8
S'james.hughes@enron.com'
p1246
sg10
I0
sg11
F0.048678720445062586
sg12
I0
sg13
I589
sg14
I0
sg15
I34
sg16
I0
sg17
I0
sg18
g19
(g23
S'\xeb6\rv?\xef\xe2\xbf'
p1247
tp1248
Rp1249
sg29
g19
(g23
S'\xce}e\xf3\x921\xd5\xbf'
p1250
tp1251
Rp1252
sg33
I35
sg34
I5
sg35
I363428
sg36
I0
sg37
I0
sg38
F0.14705882352941177
sg39
g19
(g23
S'\xc56,`\xdf\x05\xd4\xbf'
p1253
tp1254
Rp1255
ssS'REYNOLDS LAWRENCE'
p1256
(dp1257
g3
I0
sg4
I51365
sg5
I8409
sg6
I00
sg7
I-200000
sg8
I0
sg10
I156250
sg11
F0.0
sg12
I-140264
sg13
I0
sg14
I0
sg15
I0
sg16
I202052
sg17
I0
sg18
g19
(g23
S'3\x83\x93\xb1\xe3l\xe0\xbf'
p1258
tp1259
Rp1260
sg29
g19
(g23
S'\x12\x05\x1cm[a\xc3?'
p1261
tp1262
Rp1263
sg33
I0
sg34
I0
sg35
I201483
sg36
I76399
sg37
I394475
sg38
F0.0
sg39
g19
(g23
S'\x1eV9\xc7\xd4\xa0\xd7?'
p1264
tp1265
Rp1266
ssS'DIMICHELE RICHARD G'
p1267
(dp1268
g3
I0
sg4
I0
sg5
I35812
sg6
I00
sg7
I0
sg8
S'richard.dimichele@enron.com'
p1269
sg10
I694862
sg11
F0.0
sg12
I0
sg13
I0
sg14
I0
sg15
I0
sg16
I374689
sg17
I0
sg18
g19
(g23
S'\x059\xcf\xdaX\xa1\xc8?'
p1270
tp1271
Rp1272
sg29
g19
(g23
S'\xb8G\xf0\xde\x8a9\xe9?'
p1273
tp1274
Rp1275
sg33
I0
sg34
I0
sg35
I126027
sg36
I262788
sg37
I2368151
sg38
F0.0
sg39
g19
(g23
S'a\xc2\x9e=\xe0\xd2\xf2?'
p1276
tp1277
Rp1278
ssS'BHATNAGAR SANJAY'
p1279
(dp1280
g3
I523
sg4
I0
sg5
I0
sg6
I00
sg7
I0
sg8
S'sanjay.bhatnagar@enron.com'
p1281
sg10
I0
sg11
F0.0
sg12
I15456290
sg13
I463
sg14
I0
sg15
I29
sg16
I137864
sg17
I137864
sg18
g19
(g23
S'\xeb6\rv?\xef\xe2\xbf'
p1282
tp1283
Rp1284
sS'total_stock_value'
p1285
g19
(g23
S'\xe9\x13\xe6\xb9[)\xe0\xbf'
p1286
tp1287
Rp1288
sg33
I0
sg34
I1
sg35
I-2604490
sg36
I0
sg37
I15456290
sg38
F0.034482758620689655
sg39
g19
(g23
S'\xbf\x1f1\xff\xdau\xad?'
p1289
tp1290
Rp1291
ssS'CARTER REBECCA C'
p1292
(dp1293
g3
I312
sg4
I0
sg5
I0
sg6
I00
sg7
I-159792
sg8
S'rebecca.carter@enron.com'
p1294
sg10
I75000
sg11
F0.09294871794871795
sg12
I-307301
sg13
I196
sg14
I0
sg15
I15
sg16
I540
sg17
I0
sg18
g19
(g23
S'\x887@QX\xd0\xd6\xbf'
p1295
tp1296
Rp1297
sg29
g19
(g23
S'\xe9\x13\xe6\xb9[)\xe0\xbf'
p1298
tp1299
Rp1300
sg33
I29
sg34
I7
sg35
I307301
sg36
I261809
sg37
I477557
sg38
F0.4666666666666667
sg39
g19
(g23
S'\xdc\xbd\x93\x8b\x0b\xb3\xdd\xbf'
p1301
tp1302
Rp1303
ssS'BUCHANAN HAROLD G'
p1304
(dp1305
g3
I1088
sg4
I0
sg5
I600
sg6
I00
sg7
I0
sg8
S'john.buchanan@enron.com'
p1306
sg10
I304805
sg11
F0.0
sg12
I0
sg13
I23
sg14
I0
sg15
I125
sg16
I1215
sg17
I0
sg18
g19
(g23
S'S\xd1\xb2~\xd2\x8d\xc9\xbf'
p1307
tp1308
Rp1309
sg29
g19
(g23
S',\xf5\xa4\x01<:\xd6\xbf'
p1310
tp1311
Rp1312
sg33
I0
sg34
I0
sg35
I189041
sg36
I248017
sg37
I1054637
sg38
F0.0
sg39
g19
(g23
S'\xb2\x1aK{\x8e\x1e\xd3\xbf'
p1313
tp1314
Rp1315
ssS'YEAP SOON'
p1316
(dp1317
g3
I0
sg4
I0
sg5
I55097
sg6
I00
sg7
I0
sg8
I0
sg10
I0
sg11
F0.0
sg12
I0
sg13
I0
sg14
I0
sg15
I0
sg16
I0
sg17
I0
sg18
g19
(g23
S'\xeb6\rv?\xef\xe2\xbf'
p1318
tp1319
Rp1320
sg29
g19
(g23
S'\xed\x1c\x92\xe6\xa8g\xde\xbf'
p1321
tp1322
Rp1323
sg33
I0
sg34
I0
sg35
I0
sg36
I0
sg37
I55097
sg38
F0.0
sg39
g19
(g23
S'\xb5\x12]\xb9\x92:\xdb\xbf'
p1324
tp1325
Rp1326
ssS'MURRAY JULIA H'
p1327
(dp1328
g3
I2192
sg4
I0
sg5
I57580
sg6
I00
sg7
I0
sg8
S'julia.murray@enron.com'
p1329
sg10
I125000
sg11
F0.005018248175182482
sg12
I0
sg13
I395
sg14
I0
sg15
I45
sg16
I330
sg17
I0
sg18
g19
(g23
S'\x18\xd0L\xc8\xa0\xcb\xd1\xbf'
p1330
tp1331
Rp1332
sg29
g19
(g23
S's\xfd\x97\xa7\xaa`\xda\xbf'
p1333
tp1334
Rp1335
sg33
I11
sg34
I2
sg35
I196983
sg36
I229284
sg37
I812194
sg38
F0.044444444444444446
sg39
g19
(g23
S'b\xc8$ \x02\x91\xd8\xbf'
p1336
tp1337
Rp1338
ssS'GARLAND C KEVIN'
p1339
(dp1340
g3
I209
sg4
I0
sg5
I48405
sg6
I00
sg7
I0
sg8
S'kevin.garland@enron.com'
p1341
sg10
I375304
sg11
F0.04784688995215311
sg12
I0
sg13
I178
sg14
I0
sg15
I44
sg16
I60814
sg17
I0
sg18
g19
(g23
S'o\x05\xea\x7fd&\xb3?'
p1342
tp1343
Rp1344
sg29
g19
(g23
S'\x92\xd7A]\xbdg\xd7\xbf'
p1345
tp1346
Rp1347
sg33
I10
sg34
I27
sg35
I259907
sg36
I231946
sg37
I1566469
sg38
F0.6136363636363636
sg39
g19
(g23
S'\xa5\xb5<\xc6i\x8b\xd5\xbf'
p1348
tp1349
Rp1350
ssS'DODSON KEITH'
p1351
(dp1352
g3
I176
sg4
I0
sg5
I28164
sg6
I00
sg7
I0
sg8
S'keith.dodson@enron.com'
p1353
sg10
I0
sg11
F0.056818181818181816
sg12
I0
sg13
I114
sg14
I0
sg15
I14
sg16
I774
sg17
I0
sg18
g19
(g23
S'\x1d9\xeb\xd2\x98-\xe1\xbf'
p1354
tp1355
Rp1356
sg29
g19
(g23
S'\xe9\x13\xe6\xb9[)\xe0\xbf'
p1357
tp1358
Rp1359
sg33
I10
sg34
I3
sg35
I0
sg36
I221003
sg37
I319941
sg38
F0.21428571428571427
sg39
g19
(g23
S'\xdc\xbd\x93\x8b\x0b\xb3\xdd\xbf'
p1360
tp1361
Rp1362
ssS'YEAGER F SCOTT'
p1363
(dp1364
g3
I0
sg4
I0
sg5
I53947
sg6
I01
sg7
I0
sg8
S'scott.yeager@enron.com'
p1365
sg10
I0
sg11
F0.0
sg12
I0
sg13
I0
sg14
I0
sg15
I0
sg16
I147950
sg17
I0
sg18
g19
(g23
S'\xeb6\rv?\xef\xe2\xbf'
p1366
tp1367
Rp1368
sg29
g19
(g23
S'\xa7\x92\xa8\x1d\x84|\xf5?'
p1369
tp1370
Rp1371
sg33
I0
sg34
I0
sg35
I3576206
sg36
I158403
sg37
I360300
sg38
F0.0
sg39
g19
(g23
S'\x07F%\x05\xaf2\xf3?'
p1372
tp1373
Rp1374
ssS'HIRKO JOSEPH'
p1375
(dp1376
g3
I0
sg4
I10259
sg5
I77978
sg6
I01
sg7
I0
sg8
S'joe.hirko@enron.com'
p1377
sg10
I0
sg11
F0.0
sg12
I0
sg13
I0
sg14
I0
sg15
I0
sg16
I2856
sg17
I0
sg18
g19
(g23
S'\xeb6\rv?\xef\xe2\xbf'
p1378
tp1379
Rp1380
sg29
g19
(g23
S'\xab\xc2\xd55l\x1d\x11@'
p1381
tp1382
Rp1383
sg33
I0
sg34
I0
sg35
I0
sg36
I0
sg37
I91093
sg38
F0.0
sg39
g19
(g23
S'\xd4\xbd\xb6\xbe\x1a\xca\x16@'
p1384
tp1385
Rp1386
ssS'DIETRICH JANET R'
p1387
(dp1388
g3
I2572
sg4
I0
sg5
I3475
sg6
I00
sg7
I0
sg8
S'janet.dietrich@enron.com'
p1389
sg10
I556416
sg11
F0.11858475894245724
sg12
I0
sg13
I1902
sg14
I0
sg15
I63
sg16
I473
sg17
I0
sg18
g19
(g23
S'\xe9\x04\x98\xd9\xc6\x08\xbf\xbf'
p1390
tp1391
Rp1392
sg29
g19
(g23
S'\t\xb7\xc6\xb5\xb3\x86\xcb\xbf'
p1393
tp1394
Rp1395
sg33
I305
sg34
I14
sg35
I315068
sg36
I250100
sg37
I1410464
sg38
F0.2222222222222222
sg39
g19
(g23
S'3J\xb8\xdfU\xaa\xc3\xbf'
p1396
tp1397
Rp1398
ssS'DERRICK JR. JAMES V'
p1399
(dp1400
g3
I2181
sg4
I0
sg5
I51124
sg6
I00
sg7
I-1284000
sg8
S'james.derrick@enron.com'
p1401
sg10
I484000
sg11
F0.029344337459880788
sg12
I-1787380
sg13
I1401
sg14
I0
sg15
I909
sg16
I7482
sg17
I0
sg18
g19
(g23
S'!m\x06\xdc\xea9\xa2?'
p1402
tp1403
Rp1404
sg29
g19
(g23
S'\xb56E\xb3l\xc8\xeb?'
p1405
tp1406
Rp1407
sg33
I64
sg34
I20
sg35
I1787380
sg36
I492375
sg37
I550981
sg38
F0.022002200220022004
sg39
g19
(g23
S'\x1b\xd3\x02/\xfe\xdf\xf4?'
p1408
tp1409
Rp1410
ssS'FREVERT MARK A'
p1411
(dp1412
g3
I3275
sg4
I6426990
sg5
I86987
sg6
I00
sg7
I-3367011
sg8
S'mark.frevert@enron.com'
p1413
sg10
I1617011
sg11
F0.07389312977099237
sg12
I0
sg13
I2979
sg14
I2000000
sg15
I21
sg16
I7427621
sg17
I0
sg18
g19
(g23
S'm\xd3t\xe3\xeb?\xef?'
p1414
tp1415
Rp1416
sg29
g19
(g23
S'r\x19\xff\x84\xefK\xfc?'
p1417
tp1418
Rp1419
sg33
I242
sg34
I6
sg35
I4188667
sg36
I1060932
sg37
I17252530
sg38
F0.2857142857142857
sg39
g19
(g23
S'\xf8\x99\x85"\xc7\x01\xfa?'
p1420
tp1421
Rp1422
ssS'PAI LOU L'
p1423
(dp1424
g3
I0
sg4
I0
sg5
I32047
sg6
I00
sg7
I0
sg8
S'lou.pai@enron.com'
p1425
sg10
I0
sg11
F0.0
sg12
I0
sg13
I0
sg14
I0
sg15
I0
sg16
I1829457
sg17
I0
sg18
g19
(g23
S'\x059\xcf\xdaX\xa1\xc8?'
p1426
tp1427
Rp1428
sg29
g19
(g23
S'\x8e:\xb8\xcdE\x96\t@'
p1429
tp1430
Rp1431
sg33
I0
sg34
I0
sg35
I8453763
sg36
I261879
sg37
I3123383
sg38
F0.0
sg39
g19
(g23
S'\x15.\x00?-\xe7\x04@'
p1432
tp1433
Rp1434
ssS'BAY FRANKLIN R'
p1435
(dp1436
g3
I0
sg4
I260455
sg5
I129142
sg6
I00
sg7
I-201641
sg8
S'frank.bay@enron.com'
p1437
sg10
I0
sg11
F0.0
sg12
I-82782
sg13
I0
sg14
I0
sg15
I0
sg16
I69
sg17
I0
sg18
g19
(g23
S'\x18\xd0L\xc8\xa0\xcb\xd1\xbf'
p1438
tp1439
Rp1440
sg29
g19
(g23
S'\x88\xd3\xe9\xc0/\xb2\xdf\xbf'
p1441
tp1442
Rp1443
sg33
I0
sg34
I0
sg35
I145796
sg36
I239671
sg37
I827696
sg38
F0.0
sg39
g19
(g23
S'\xdc\xbd\x93\x8b\x0b\xb3\xdd\xbf'
p1444
tp1445
Rp1446
ssS'HAYSLETT RODERICK J'
p1447
(dp1448
g3
I2649
sg4
I0
sg5
I0
sg6
I00
sg7
I0
sg8
S'rod.hayslett@enron.com'
p1449
sg10
I0
sg11
F0.01321253303133258
sg12
I0
sg13
I571
sg14
I0
sg15
I1061
sg16
I0
sg17
I0
sg18
g19
(g23
S'\xeb6\rv?\xef\xe2\xbf'
p1450
tp1451
Rp1452
sg29
g19
(g23
S'WH\xcf\x05\x95\xdf\xdc\xbf'
p1453
tp1454
Rp1455
sg33
I35
sg34
I38
sg35
I346663
sg36
I0
sg37
I0
sg38
F0.03581526861451461
sg39
g19
(g23
S'\xdc\xbd\x93\x8b\x0b\xb3\xdd\xbf'
p1456
tp1457
Rp1458
ssS'FUGH JOHN L'
p1459
(dp1460
g3
I0
sg4
I50591
sg5
I0
sg6
I00
sg7
I0
sg8
I0
sg10
I0
sg11
F0.0
sg12
I0
sg13
I0
sg14
I0
sg15
I0
sg16
I0
sg17
I0
sg18
g19
(g23
S'\xeb6\rv?\xef\xe2\xbf'
p1461
tp1462
Rp1463
sg29
g19
(g23
S'\xfe\x8a\x90hc\x91\xde\xbf'
p1464
tp1465
Rp1466
sg33
I0
sg34
I0
sg35
I0
sg36
I0
sg37
I50591
sg38
F0.0
sg39
g19
(g23
S'XY\xbf\x97Qp\xdb\xbf'
p1467
tp1468
Rp1469
ssS'FALLON JAMES B'
p1470
(dp1471
g3
I1755
sg4
I0
sg5
I95924
sg6
I00
sg7
I0
sg8
S'jim.fallon@enron.com'
p1472
sg10
I374347
sg11
F0.023931623931623933
sg12
I0
sg13
I1604
sg14
I0
sg15
I75
sg16
I401481
sg17
I0
sg18
g19
(g23
S'\x01\xab\xea\\\xdb\xe5\xf5?'
p1473
tp1474
Rp1475
sg29
g19
(g23
S'\xba#\x8f\x13\xb89\xc2\xbf'
p1476
tp1477
Rp1478
sg33
I42
sg34
I37
sg35
I1392142
sg36
I304588
sg37
I3676340
sg38
F0.49333333333333335
sg39
g19
(g23
S'\xe7\x8d\xf9\xae\xe6\xa5\xd1\xbf'
p1479
tp1480
Rp1481
ssS'KOENIG MARK E'
p1482
(dp1483
g3
I2374
sg4
I0
sg5
I127017
sg6
I01
sg7
I0
sg8
S'mark.koenig@enron.com'
p1484
sg10
I300000
sg11
F0.02232518955349621
sg12
I0
sg13
I2271
sg14
I0
sg15
I61
sg16
I150458
sg17
I0
sg18
g19
(g23
S'X\xce\x94k\xd1\xeb\xa5\xbf'
p1485
tp1486
Rp1487
sg29
g19
(g23
S'5S\xfa\xfe\xa2n\xca\xbf'
p1488
tp1489
Rp1490
sg33
I53
sg34
I15
sg35
I1248318
sg36
I309946
sg37
I1587421
sg38
F0.2459016393442623
sg39
g19
(g23
S',\xdd^\r\xf6\x16\xd5\xbf'
p1491
tp1492
Rp1493
ssS'SAVAGE FRANK'
p1494
(dp1495
g3
I0
sg4
I0
sg5
I0
sg6
I00
sg7
I-121284
sg8
I0
sg10
I0
sg11
F0.0
sg12
I0
sg13
I0
sg14
I0
sg15
I0
sg16
I0
sg17
I125034
sg18
I0
sg29
I0
sg33
I0
sg34
I0
sg35
I0
sg36
I0
sg37
I3750
sg38
F0.0
sg39
I0
ssS'IZZO LAWRENCE L'
p1496
(dp1497
g3
I496
sg4
I0
sg5
I28093
sg6
I00
sg7
I0
sg8
S'larry.izzo@enron.com'
p1498
sg10
I312500
sg11
F0.056451612903225805
sg12
I0
sg13
I437
sg14
I0
sg15
I19
sg16
I1553729
sg17
I0
sg18
g19
(g23
S'\xeb6\rv?\xef\xe2\xbf'
p1499
tp1500
Rp1501
sg29
g19
(g23
S'\xb4\xef$\xd3\xdb\x97\xd9?'
p1502
tp1503
Rp1504
sg33
I28
sg34
I5
sg35
I3654808
sg36
I85274
sg37
I1979596
sg38
F0.2631578947368421
sg39
g19
(g23
S"\xa9'Q\xc0\xed+\x9f\xbf"
p1505
tp1506
Rp1507
ssS'TILNEY ELIZABETH A'
p1508
(dp1509
g3
I460
sg4
I0
sg5
I0
sg6
I00
sg7
I-575000
sg8
S'elizabeth.tilney@enron.com'
p1510
sg10
I275000
sg11
F0.021739130434782608
sg12
I0
sg13
I379
sg14
I0
sg15
I19
sg16
I152055
sg17
I0
sg18
g19
(g23
S'\x887@QX\xd0\xd6\xbf'
p1511
tp1512
Rp1513
sg29
g19
(g23
S'F\x8eM \x18\xb3\xd4\xbf'
p1514
tp1515
Rp1516
sg33
I10
sg34
I11
sg35
I576792
sg36
I247338
sg37
I399393
sg38
F0.5789473684210527
sg39
g19
(g23
S'[)\x16\x81\r\x1f\xd6\xbf'
p1517
tp1518
Rp1519
ssS'MARTIN AMANDA K'
p1520
(dp1521
g3
I1522
sg4
I85430
sg5
I8211
sg6
I00
sg7
I0
sg8
S'a..martin@enron.com'
p1522
sg10
I5145434
sg11
F0.005256241787122208
sg12
I0
sg13
I477
sg14
I0
sg15
I230
sg16
I2818454
sg17
I0
sg18
g19
(g23
S'\xeb6\rv?\xef\xe2\xbf'
p1523
tp1524
Rp1525
sg29
g19
(g23
S'\x88\x021H\x19q\xc7\xbf'
p1526
tp1527
Rp1528
sg33
I8
sg34
I0
sg35
I0
sg36
I349487
sg37
I8407016
sg38
F0.0
sg39
g19
(g23
S'@\x0e\x87\x0b#P\xa9\xbf'
p1529
tp1530
Rp1531
ssS'BUY RICHARD B'
p1532
(dp1533
g3
I3523
sg4
I649584
sg5
I0
sg6
I00
sg7
I-694862
sg8
S'rick.buy@enron.com'
p1534
sg10
I769862
sg11
F0.04428044280442804
sg12
I0
sg13
I2333
sg14
I0
sg15
I1053
sg16
I400572
sg17
I0
sg18
g19
(g23
S'M\xd4\xd0\x91\xd3/\xbd?'
p1535
tp1536
Rp1537
sg29
g19
(g23
S'\xc7\x96\x19\xe8\xccB\x9f?'
p1538
tp1539
Rp1540
sg33
I156
sg34
I71
sg35
I901657
sg36
I330546
sg37
I2355702
sg38
F0.06742640075973409
sg39
g19
(g23
S'\xb7]y\x89\xdf"\xa7?'
p1541
tp1542
Rp1543
ssS'GRAMM WENDY L'
p1544
(dp1545
g3
I0
sg4
I0
sg5
I0
sg6
I00
sg7
I0
sg8
I0
sg10
I0
sg11
F0.0
sg12
I0
sg13
I0
sg14
I0
sg15
I0
sg16
I0
sg17
I119292
sg18
I0
sg29
I0
sg33
I0
sg34
I0
sg35
I0
sg36
I0
sg37
I119292
sg38
F0.0
sg39
I0
ssS'CAUSEY RICHARD A'
p1546
(dp1547
g3
I1892
sg4
I0
sg5
I30674
sg6
I01
sg7
I-235000
sg8
S'richard.causey@enron.com'
p1548
sg10
I350000
sg11
F0.0306553911205074
sg12
I0
sg13
I1585
sg14
I0
sg15
I49
sg16
I307895
sg17
I0
sg18
g19
(g23
S'\x059\xcf\xdaX\xa1\xc8?'
p1549
tp1550
Rp1551
sg29
g19
(g23
S'9a.\x98\x8a\xb2\xbd\xbf'
p1552
tp1553
Rp1554
sg33
I58
sg34
I12
sg35
I2502063
sg36
I415189
sg37
I1868758
sg38
F0.24489795918367346
sg39
g19
(g23
S'\xdc\xbd\x93\x8b\x0b\xb3\xdd\xbf'
p1555
tp1556
Rp1557
ssS'TAYLOR MITCHELL S'
p1558
(dp1559
g3
I533
sg4
I227449
sg5
I0
sg6
I00
sg7
I0
sg8
S'mitchell.taylor@enron.com'
p1560
sg10
I0
sg11
F0.0
sg12
I0
sg13
I300
sg14
I0
sg15
I29
sg16
I0
sg17
I0
sg18
g19
(g23
S'\xe9\x04\x98\xd9\xc6\x08\xbf\xbf'
p1561
tp1562
Rp1563
sg29
g19
(g23
S'\xccEyW\xa0\xc7\xb3?'
p1564
tp1565
Rp1566
sg33
I0
sg34
I0
sg35
I563798
sg36
I265214
sg37
I1092663
sg38
F0.0
sg39
g19
(g23
S' j\xa37\\&\xc6?'
p1567
tp1568
Rp1569
ssS'DONAHUE JR JEFFREY M'
p1570
(dp1571
g3
I865
sg4
I0
sg5
I96268
sg6
I00
sg7
I-300000
sg8
S'jeff.donahue@enron.com'
p1572
sg10
I0
sg11
F0.21734104046242775
sg12
I0
sg13
I772
sg14
I0
sg15
I22
sg16
I891
sg17
I0
sg18
g19
(g23
S'!m\x06\xdc\xea9\xa2?'
p1573
tp1574
Rp1575
sg29
g19
(g23
S'\xbc\xa2\x0e\xf0\xdd\x90\xd5\xbf'
p1576
tp1577
Rp1578
sg33
I188
sg34
I11
sg35
I315068
sg36
I278601
sg37
I875760
sg38
F0.5
sg39
g19
(g23
S'1\x9b\xbb<\xee\xe1\xd3\xbf'
p1579
tp1580
Rp1581
ssS'GLISAN JR BEN F'
p1582
(dp1583
g3
I873
sg4
I0
sg5
I125978
sg6
I01
sg7
I0
sg8
S'ben.glisan@enron.com'
p1584
sg10
I71023
sg11
F0.05956471935853379
sg12
I0
sg13
I874
sg14
I0
sg15
I16
sg16
I200308
sg17
I0
sg18
g19
(g23
S'\xe9\x04\x98\xd9\xc6\x08\xbf\xbf'
p1585
tp1586
Rp1587
sg29
g19
(g23
S'M\xado\xdbX\x93\xd8\xbf'
p1588
tp1589
Rp1590
sg33
I52
sg34
I6
sg35
I393818
sg36
I274975
sg37
I1272284
sg38
F0.375
sg39
g19
(g23
S'\x9c\xf8\x96\xce\xaf\xc4\xd8\xbf'
p1591
tp1592
Rp1593
ss.